; Listing generated by Microsoft (R) Optimizing Compiler Version 13.10.3077 

	TITLE	src/game/fx_particle_system_bulk.cpp
	.386P
include listing.inc
if @Version gt 510
.model FLAT
else
_TEXT	SEGMENT PARA USE32 PUBLIC 'CODE'
_TEXT	ENDS
_DATA	SEGMENT DWORD USE32 PUBLIC 'DATA'
_DATA	ENDS
CONST	SEGMENT DWORD USE32 PUBLIC 'CONST'
CONST	ENDS
_BSS	SEGMENT DWORD USE32 PUBLIC 'BSS'
_BSS	ENDS
$$SYMBOLS	SEGMENT BYTE USE32 'DEBSYM'
$$SYMBOLS	ENDS
_TLS	SEGMENT DWORD USE32 PUBLIC 'TLS'
_TLS	ENDS
;	COMDAT ??0?$ConcreteModuleClass@V?$DefaultModuleTag@$0A@@FXParticleSystem@@@FXParticleSystem@@AAE@XZ
_TEXT	SEGMENT PARA USE32 PUBLIC 'CODE'
_TEXT	ENDS
;	COMDAT ??1?$ConcreteModuleClass@V?$DefaultModuleTag@$0A@@FXParticleSystem@@@FXParticleSystem@@QAE@XZ
_TEXT	SEGMENT PARA USE32 PUBLIC 'CODE'
_TEXT	ENDS
;	COMDAT ?getClass@?$ConcreteModuleTemplate@V?$DefaultModuleTag@$0A@@FXParticleSystem@@@FXParticleSystem@@QBEABV?$ConcreteModuleClass@V?$DefaultModuleTag@$0A@@FXParticleSystem@@@2@XZ
_TEXT	SEGMENT PARA USE32 PUBLIC 'CODE'
_TEXT	ENDS
;	COMDAT ?getInstance@?$ConcreteModuleClass@V?$DefaultModuleTag@$0A@@FXParticleSystem@@@FXParticleSystem@@SAABV12@XZ
_TEXT	SEGMENT PARA USE32 PUBLIC 'CODE'
_TEXT	ENDS
;	COMDAT ??0?$ConcreteModuleClass@V?$DefaultModuleTag@$00@FXParticleSystem@@@FXParticleSystem@@AAE@XZ
_TEXT	SEGMENT PARA USE32 PUBLIC 'CODE'
_TEXT	ENDS
;	COMDAT ??1?$ConcreteModuleClass@V?$DefaultModuleTag@$00@FXParticleSystem@@@FXParticleSystem@@QAE@XZ
_TEXT	SEGMENT PARA USE32 PUBLIC 'CODE'
_TEXT	ENDS
;	COMDAT ?getClass@?$ConcreteModuleTemplate@V?$DefaultModuleTag@$00@FXParticleSystem@@@FXParticleSystem@@QBEABV?$ConcreteModuleClass@V?$DefaultModuleTag@$00@FXParticleSystem@@@2@XZ
_TEXT	SEGMENT PARA USE32 PUBLIC 'CODE'
_TEXT	ENDS
;	COMDAT ?getInstance@?$ConcreteModuleClass@V?$DefaultModuleTag@$00@FXParticleSystem@@@FXParticleSystem@@SAABV12@XZ
_TEXT	SEGMENT PARA USE32 PUBLIC 'CODE'
_TEXT	ENDS
;	COMDAT ??0?$ConcreteModuleClass@V?$DefaultModuleTag@$01@FXParticleSystem@@@FXParticleSystem@@AAE@XZ
_TEXT	SEGMENT PARA USE32 PUBLIC 'CODE'
_TEXT	ENDS
;	COMDAT ??1?$ConcreteModuleClass@V?$DefaultModuleTag@$01@FXParticleSystem@@@FXParticleSystem@@QAE@XZ
_TEXT	SEGMENT PARA USE32 PUBLIC 'CODE'
_TEXT	ENDS
;	COMDAT ?getClass@?$ConcreteModuleTemplate@V?$DefaultModuleTag@$01@FXParticleSystem@@@FXParticleSystem@@QBEABV?$ConcreteModuleClass@V?$DefaultModuleTag@$01@FXParticleSystem@@@2@XZ
_TEXT	SEGMENT PARA USE32 PUBLIC 'CODE'
_TEXT	ENDS
;	COMDAT ?getInstance@?$ConcreteModuleClass@V?$DefaultModuleTag@$01@FXParticleSystem@@@FXParticleSystem@@SAABV12@XZ
_TEXT	SEGMENT PARA USE32 PUBLIC 'CODE'
_TEXT	ENDS
;	COMDAT ??0?$ConcreteModuleClass@V?$DefaultModuleTag@$02@FXParticleSystem@@@FXParticleSystem@@AAE@XZ
_TEXT	SEGMENT PARA USE32 PUBLIC 'CODE'
_TEXT	ENDS
;	COMDAT ??1?$ConcreteModuleClass@V?$DefaultModuleTag@$02@FXParticleSystem@@@FXParticleSystem@@QAE@XZ
_TEXT	SEGMENT PARA USE32 PUBLIC 'CODE'
_TEXT	ENDS
;	COMDAT ?getClass@?$ConcreteModuleTemplate@V?$DefaultModuleTag@$02@FXParticleSystem@@@FXParticleSystem@@QBEABV?$ConcreteModuleClass@V?$DefaultModuleTag@$02@FXParticleSystem@@@2@XZ
_TEXT	SEGMENT PARA USE32 PUBLIC 'CODE'
_TEXT	ENDS
;	COMDAT ?getInstance@?$ConcreteModuleClass@V?$DefaultModuleTag@$02@FXParticleSystem@@@FXParticleSystem@@SAABV12@XZ
_TEXT	SEGMENT PARA USE32 PUBLIC 'CODE'
_TEXT	ENDS
;	COMDAT ??0?$ConcreteModuleClass@V?$DefaultModuleTag@$05@FXParticleSystem@@@FXParticleSystem@@AAE@XZ
_TEXT	SEGMENT PARA USE32 PUBLIC 'CODE'
_TEXT	ENDS
;	COMDAT ??1?$ConcreteModuleClass@V?$DefaultModuleTag@$05@FXParticleSystem@@@FXParticleSystem@@QAE@XZ
_TEXT	SEGMENT PARA USE32 PUBLIC 'CODE'
_TEXT	ENDS
;	COMDAT ?getClass@?$ConcreteModuleTemplate@V?$DefaultModuleTag@$05@FXParticleSystem@@@FXParticleSystem@@QBEABV?$ConcreteModuleClass@V?$DefaultModuleTag@$05@FXParticleSystem@@@2@XZ
_TEXT	SEGMENT PARA USE32 PUBLIC 'CODE'
_TEXT	ENDS
;	COMDAT ?getInstance@?$ConcreteModuleClass@V?$DefaultModuleTag@$05@FXParticleSystem@@@FXParticleSystem@@SAABV12@XZ
_TEXT	SEGMENT PARA USE32 PUBLIC 'CODE'
_TEXT	ENDS
;	COMDAT ??0?$ConcreteModuleClass@V?$DefaultModuleTag@$06@FXParticleSystem@@@FXParticleSystem@@AAE@XZ
_TEXT	SEGMENT PARA USE32 PUBLIC 'CODE'
_TEXT	ENDS
;	COMDAT ??1?$ConcreteModuleClass@V?$DefaultModuleTag@$06@FXParticleSystem@@@FXParticleSystem@@QAE@XZ
_TEXT	SEGMENT PARA USE32 PUBLIC 'CODE'
_TEXT	ENDS
;	COMDAT ?getClass@?$ConcreteModuleTemplate@V?$DefaultModuleTag@$06@FXParticleSystem@@@FXParticleSystem@@QBEABV?$ConcreteModuleClass@V?$DefaultModuleTag@$06@FXParticleSystem@@@2@XZ
_TEXT	SEGMENT PARA USE32 PUBLIC 'CODE'
_TEXT	ENDS
;	COMDAT ?getInstance@?$ConcreteModuleClass@V?$DefaultModuleTag@$06@FXParticleSystem@@@FXParticleSystem@@SAABV12@XZ
_TEXT	SEGMENT PARA USE32 PUBLIC 'CODE'
_TEXT	ENDS
;	COMDAT ??0?$ConcreteModuleClass@V?$ModuleTag@$01$E?RENDEROBJECT_UPDATE_MODULE_KEY@FXParticleSystem@@3QBDB$E?RENDEROBJECT_UPDATE_MODULE_NAME@2@3QBDBVRenderObjectUpdateModule@2@VRenderObjectUpdateModuleTemplate@2@VRenderObjectParticleUpdateModule@2@VRenderObjectParticleUpdateModuleTemplate@2@@FXParticleSystem@@@FXParticleSystem@@AAE@XZ
_TEXT	SEGMENT PARA USE32 PUBLIC 'CODE'
_TEXT	ENDS
;	COMDAT ??1?$ConcreteModuleClass@V?$ModuleTag@$01$E?RENDEROBJECT_UPDATE_MODULE_KEY@FXParticleSystem@@3QBDB$E?RENDEROBJECT_UPDATE_MODULE_NAME@2@3QBDBVRenderObjectUpdateModule@2@VRenderObjectUpdateModuleTemplate@2@VRenderObjectParticleUpdateModule@2@VRenderObjectParticleUpdateModuleTemplate@2@@FXParticleSystem@@@FXParticleSystem@@QAE@XZ
_TEXT	SEGMENT PARA USE32 PUBLIC 'CODE'
_TEXT	ENDS
;	COMDAT ?createTemplate@?$ConcreteModuleClass@V?$ModuleTag@$01$E?RENDEROBJECT_UPDATE_MODULE_KEY@FXParticleSystem@@3QBDB$E?RENDEROBJECT_UPDATE_MODULE_NAME@2@3QBDBVRenderObjectUpdateModule@2@VRenderObjectUpdateModuleTemplate@2@VRenderObjectParticleUpdateModule@2@VRenderObjectParticleUpdateModuleTemplate@2@@FXParticleSystem@@@FXParticleSystem@@QBEPAVRenderObjectUpdateModuleTemplate@2@PAVINI@@@Z
_TEXT	SEGMENT PARA USE32 PUBLIC 'CODE'
_TEXT	ENDS
;	COMDAT ?createTemplate@?$ConcreteModuleClass@V?$ModuleTag@$01$E?RENDEROBJECT_UPDATE_MODULE_KEY@FXParticleSystem@@3QBDB$E?RENDEROBJECT_UPDATE_MODULE_NAME@2@3QBDBVRenderObjectUpdateModule@2@VRenderObjectUpdateModuleTemplate@2@VRenderObjectParticleUpdateModule@2@VRenderObjectParticleUpdateModuleTemplate@2@@FXParticleSystem@@@FXParticleSystem@@QBEPAVRenderObjectUpdateModuleTemplate@2@XZ
_TEXT	SEGMENT PARA USE32 PUBLIC 'CODE'
_TEXT	ENDS
;	COMDAT ?getClass@?$ConcreteModuleTemplate@V?$ModuleTag@$01$E?RENDEROBJECT_UPDATE_MODULE_KEY@FXParticleSystem@@3QBDB$E?RENDEROBJECT_UPDATE_MODULE_NAME@2@3QBDBVRenderObjectUpdateModule@2@VRenderObjectUpdateModuleTemplate@2@VRenderObjectParticleUpdateModule@2@VRenderObjectParticleUpdateModuleTemplate@2@@FXParticleSystem@@@FXParticleSystem@@QBEABV?$ConcreteModuleClass@V?$ModuleTag@$01$E?RENDEROBJECT_UPDATE_MODULE_KEY@FXParticleSystem@@3QBDB$E?RENDEROBJECT_UPDATE_MODULE_NAME@2@3QBDBVRenderObjectUpdateModule@2@VRenderObjectUpdateModuleTemplate@2@VRenderObjectParticleUpdateModule@2@VRenderObjectParticleUpdateModuleTemplate@2@@FXParticleSystem@@@2@XZ
_TEXT	SEGMENT PARA USE32 PUBLIC 'CODE'
_TEXT	ENDS
;	COMDAT ?getInstance@?$ConcreteModuleClass@V?$ModuleTag@$01$E?RENDEROBJECT_UPDATE_MODULE_KEY@FXParticleSystem@@3QBDB$E?RENDEROBJECT_UPDATE_MODULE_NAME@2@3QBDBVRenderObjectUpdateModule@2@VRenderObjectUpdateModuleTemplate@2@VRenderObjectParticleUpdateModule@2@VRenderObjectParticleUpdateModuleTemplate@2@@FXParticleSystem@@@FXParticleSystem@@SAABV12@XZ
_TEXT	SEGMENT PARA USE32 PUBLIC 'CODE'
_TEXT	ENDS
;	COMDAT ??0?$ConcreteModuleClass@V?$ModuleTag@$03$E?CYLINDRICAL_EMISSION_VELOCITY_MODULE_KEY@FXParticleSystem@@3QBDB$E?CYLINDRICAL_EMISSION_VELOCITY_MODULE_NAME@2@3QBDBVCylindricalEmissionVelocityModule@2@VCylindricalEmissionVelocityModuleTemplate@2@V?$DefaultParticleModule@$03@2@V?$DefaultParticleModuleTemplate@$03@2@@FXParticleSystem@@@FXParticleSystem@@AAE@XZ
_TEXT	SEGMENT PARA USE32 PUBLIC 'CODE'
_TEXT	ENDS
;	COMDAT ??1?$ConcreteModuleClass@V?$ModuleTag@$03$E?CYLINDRICAL_EMISSION_VELOCITY_MODULE_KEY@FXParticleSystem@@3QBDB$E?CYLINDRICAL_EMISSION_VELOCITY_MODULE_NAME@2@3QBDBVCylindricalEmissionVelocityModule@2@VCylindricalEmissionVelocityModuleTemplate@2@V?$DefaultParticleModule@$03@2@V?$DefaultParticleModuleTemplate@$03@2@@FXParticleSystem@@@FXParticleSystem@@QAE@XZ
_TEXT	SEGMENT PARA USE32 PUBLIC 'CODE'
_TEXT	ENDS
;	COMDAT ?createTemplate@?$ConcreteModuleClass@V?$ModuleTag@$03$E?CYLINDRICAL_EMISSION_VELOCITY_MODULE_KEY@FXParticleSystem@@3QBDB$E?CYLINDRICAL_EMISSION_VELOCITY_MODULE_NAME@2@3QBDBVCylindricalEmissionVelocityModule@2@VCylindricalEmissionVelocityModuleTemplate@2@V?$DefaultParticleModule@$03@2@V?$DefaultParticleModuleTemplate@$03@2@@FXParticleSystem@@@FXParticleSystem@@QBEPAVCylindricalEmissionVelocityModuleTemplate@2@PAVINI@@@Z
_TEXT	SEGMENT PARA USE32 PUBLIC 'CODE'
_TEXT	ENDS
;	COMDAT ?createTemplate@?$ConcreteModuleClass@V?$ModuleTag@$03$E?CYLINDRICAL_EMISSION_VELOCITY_MODULE_KEY@FXParticleSystem@@3QBDB$E?CYLINDRICAL_EMISSION_VELOCITY_MODULE_NAME@2@3QBDBVCylindricalEmissionVelocityModule@2@VCylindricalEmissionVelocityModuleTemplate@2@V?$DefaultParticleModule@$03@2@V?$DefaultParticleModuleTemplate@$03@2@@FXParticleSystem@@@FXParticleSystem@@QBEPAVCylindricalEmissionVelocityModuleTemplate@2@XZ
_TEXT	SEGMENT PARA USE32 PUBLIC 'CODE'
_TEXT	ENDS
;	COMDAT ?getClass@?$ConcreteModuleTemplate@V?$ModuleTag@$03$E?CYLINDRICAL_EMISSION_VELOCITY_MODULE_KEY@FXParticleSystem@@3QBDB$E?CYLINDRICAL_EMISSION_VELOCITY_MODULE_NAME@2@3QBDBVCylindricalEmissionVelocityModule@2@VCylindricalEmissionVelocityModuleTemplate@2@V?$DefaultParticleModule@$03@2@V?$DefaultParticleModuleTemplate@$03@2@@FXParticleSystem@@@FXParticleSystem@@QBEABV?$ConcreteModuleClass@V?$ModuleTag@$03$E?CYLINDRICAL_EMISSION_VELOCITY_MODULE_KEY@FXParticleSystem@@3QBDB$E?CYLINDRICAL_EMISSION_VELOCITY_MODULE_NAME@2@3QBDBVCylindricalEmissionVelocityModule@2@VCylindricalEmissionVelocityModuleTemplate@2@V?$DefaultParticleModule@$03@2@V?$DefaultParticleModuleTemplate@$03@2@@FXParticleSystem@@@2@XZ
_TEXT	SEGMENT PARA USE32 PUBLIC 'CODE'
_TEXT	ENDS
;	COMDAT ?getInstance@?$ConcreteModuleClass@V?$ModuleTag@$03$E?CYLINDRICAL_EMISSION_VELOCITY_MODULE_KEY@FXParticleSystem@@3QBDB$E?CYLINDRICAL_EMISSION_VELOCITY_MODULE_NAME@2@3QBDBVCylindricalEmissionVelocityModule@2@VCylindricalEmissionVelocityModuleTemplate@2@V?$DefaultParticleModule@$03@2@V?$DefaultParticleModuleTemplate@$03@2@@FXParticleSystem@@@FXParticleSystem@@SAABV12@XZ
_TEXT	SEGMENT PARA USE32 PUBLIC 'CODE'
_TEXT	ENDS
;	COMDAT ??0?$ConcreteModuleClass@V?$ModuleTag@$03$E?HEMISPHERICAL_EMISSION_VELOCITY_MODULE_KEY@FXParticleSystem@@3QBDB$E?HEMISPHERICAL_EMISSION_VELOCITY_MODULE_NAME@2@3QBDBVHemisphericalEmissionVelocityModule@2@VHemisphericalEmissionVelocityModuleTemplate@2@V?$DefaultParticleModule@$03@2@V?$DefaultParticleModuleTemplate@$03@2@@FXParticleSystem@@@FXParticleSystem@@AAE@XZ
_TEXT	SEGMENT PARA USE32 PUBLIC 'CODE'
_TEXT	ENDS
;	COMDAT ??1?$ConcreteModuleClass@V?$ModuleTag@$03$E?HEMISPHERICAL_EMISSION_VELOCITY_MODULE_KEY@FXParticleSystem@@3QBDB$E?HEMISPHERICAL_EMISSION_VELOCITY_MODULE_NAME@2@3QBDBVHemisphericalEmissionVelocityModule@2@VHemisphericalEmissionVelocityModuleTemplate@2@V?$DefaultParticleModule@$03@2@V?$DefaultParticleModuleTemplate@$03@2@@FXParticleSystem@@@FXParticleSystem@@QAE@XZ
_TEXT	SEGMENT PARA USE32 PUBLIC 'CODE'
_TEXT	ENDS
;	COMDAT ?createTemplate@?$ConcreteModuleClass@V?$ModuleTag@$03$E?HEMISPHERICAL_EMISSION_VELOCITY_MODULE_KEY@FXParticleSystem@@3QBDB$E?HEMISPHERICAL_EMISSION_VELOCITY_MODULE_NAME@2@3QBDBVHemisphericalEmissionVelocityModule@2@VHemisphericalEmissionVelocityModuleTemplate@2@V?$DefaultParticleModule@$03@2@V?$DefaultParticleModuleTemplate@$03@2@@FXParticleSystem@@@FXParticleSystem@@QBEPAVHemisphericalEmissionVelocityModuleTemplate@2@PAVINI@@@Z
_TEXT	SEGMENT PARA USE32 PUBLIC 'CODE'
_TEXT	ENDS
;	COMDAT ?createTemplate@?$ConcreteModuleClass@V?$ModuleTag@$03$E?HEMISPHERICAL_EMISSION_VELOCITY_MODULE_KEY@FXParticleSystem@@3QBDB$E?HEMISPHERICAL_EMISSION_VELOCITY_MODULE_NAME@2@3QBDBVHemisphericalEmissionVelocityModule@2@VHemisphericalEmissionVelocityModuleTemplate@2@V?$DefaultParticleModule@$03@2@V?$DefaultParticleModuleTemplate@$03@2@@FXParticleSystem@@@FXParticleSystem@@QBEPAVHemisphericalEmissionVelocityModuleTemplate@2@XZ
_TEXT	SEGMENT PARA USE32 PUBLIC 'CODE'
_TEXT	ENDS
;	COMDAT ?getClass@?$ConcreteModuleTemplate@V?$ModuleTag@$03$E?HEMISPHERICAL_EMISSION_VELOCITY_MODULE_KEY@FXParticleSystem@@3QBDB$E?HEMISPHERICAL_EMISSION_VELOCITY_MODULE_NAME@2@3QBDBVHemisphericalEmissionVelocityModule@2@VHemisphericalEmissionVelocityModuleTemplate@2@V?$DefaultParticleModule@$03@2@V?$DefaultParticleModuleTemplate@$03@2@@FXParticleSystem@@@FXParticleSystem@@QBEABV?$ConcreteModuleClass@V?$ModuleTag@$03$E?HEMISPHERICAL_EMISSION_VELOCITY_MODULE_KEY@FXParticleSystem@@3QBDB$E?HEMISPHERICAL_EMISSION_VELOCITY_MODULE_NAME@2@3QBDBVHemisphericalEmissionVelocityModule@2@VHemisphericalEmissionVelocityModuleTemplate@2@V?$DefaultParticleModule@$03@2@V?$DefaultParticleModuleTemplate@$03@2@@FXParticleSystem@@@2@XZ
_TEXT	SEGMENT PARA USE32 PUBLIC 'CODE'
_TEXT	ENDS
;	COMDAT ?getInstance@?$ConcreteModuleClass@V?$ModuleTag@$03$E?HEMISPHERICAL_EMISSION_VELOCITY_MODULE_KEY@FXParticleSystem@@3QBDB$E?HEMISPHERICAL_EMISSION_VELOCITY_MODULE_NAME@2@3QBDBVHemisphericalEmissionVelocityModule@2@VHemisphericalEmissionVelocityModuleTemplate@2@V?$DefaultParticleModule@$03@2@V?$DefaultParticleModuleTemplate@$03@2@@FXParticleSystem@@@FXParticleSystem@@SAABV12@XZ
_TEXT	SEGMENT PARA USE32 PUBLIC 'CODE'
_TEXT	ENDS
;	COMDAT ??0?$ConcreteModuleClass@V?$ModuleTag@$03$E?OUTWARD_EMISSION_VELOCITY_MODULE_KEY@FXParticleSystem@@3QBDB$E?OUTWARD_EMISSION_VELOCITY_MODULE_NAME@2@3QBDBVOutwardEmissionVelocityModule@2@VOutwardEmissionVelocityModuleTemplate@2@V?$DefaultParticleModule@$03@2@V?$DefaultParticleModuleTemplate@$03@2@@FXParticleSystem@@@FXParticleSystem@@AAE@XZ
_TEXT	SEGMENT PARA USE32 PUBLIC 'CODE'
_TEXT	ENDS
;	COMDAT ??1?$ConcreteModuleClass@V?$ModuleTag@$03$E?OUTWARD_EMISSION_VELOCITY_MODULE_KEY@FXParticleSystem@@3QBDB$E?OUTWARD_EMISSION_VELOCITY_MODULE_NAME@2@3QBDBVOutwardEmissionVelocityModule@2@VOutwardEmissionVelocityModuleTemplate@2@V?$DefaultParticleModule@$03@2@V?$DefaultParticleModuleTemplate@$03@2@@FXParticleSystem@@@FXParticleSystem@@QAE@XZ
_TEXT	SEGMENT PARA USE32 PUBLIC 'CODE'
_TEXT	ENDS
;	COMDAT ?createTemplate@?$ConcreteModuleClass@V?$ModuleTag@$03$E?OUTWARD_EMISSION_VELOCITY_MODULE_KEY@FXParticleSystem@@3QBDB$E?OUTWARD_EMISSION_VELOCITY_MODULE_NAME@2@3QBDBVOutwardEmissionVelocityModule@2@VOutwardEmissionVelocityModuleTemplate@2@V?$DefaultParticleModule@$03@2@V?$DefaultParticleModuleTemplate@$03@2@@FXParticleSystem@@@FXParticleSystem@@QBEPAVOutwardEmissionVelocityModuleTemplate@2@PAVINI@@@Z
_TEXT	SEGMENT PARA USE32 PUBLIC 'CODE'
_TEXT	ENDS
;	COMDAT ?createTemplate@?$ConcreteModuleClass@V?$ModuleTag@$03$E?OUTWARD_EMISSION_VELOCITY_MODULE_KEY@FXParticleSystem@@3QBDB$E?OUTWARD_EMISSION_VELOCITY_MODULE_NAME@2@3QBDBVOutwardEmissionVelocityModule@2@VOutwardEmissionVelocityModuleTemplate@2@V?$DefaultParticleModule@$03@2@V?$DefaultParticleModuleTemplate@$03@2@@FXParticleSystem@@@FXParticleSystem@@QBEPAVOutwardEmissionVelocityModuleTemplate@2@XZ
_TEXT	SEGMENT PARA USE32 PUBLIC 'CODE'
_TEXT	ENDS
;	COMDAT ?getClass@?$ConcreteModuleTemplate@V?$ModuleTag@$03$E?OUTWARD_EMISSION_VELOCITY_MODULE_KEY@FXParticleSystem@@3QBDB$E?OUTWARD_EMISSION_VELOCITY_MODULE_NAME@2@3QBDBVOutwardEmissionVelocityModule@2@VOutwardEmissionVelocityModuleTemplate@2@V?$DefaultParticleModule@$03@2@V?$DefaultParticleModuleTemplate@$03@2@@FXParticleSystem@@@FXParticleSystem@@QBEABV?$ConcreteModuleClass@V?$ModuleTag@$03$E?OUTWARD_EMISSION_VELOCITY_MODULE_KEY@FXParticleSystem@@3QBDB$E?OUTWARD_EMISSION_VELOCITY_MODULE_NAME@2@3QBDBVOutwardEmissionVelocityModule@2@VOutwardEmissionVelocityModuleTemplate@2@V?$DefaultParticleModule@$03@2@V?$DefaultParticleModuleTemplate@$03@2@@FXParticleSystem@@@2@XZ
_TEXT	SEGMENT PARA USE32 PUBLIC 'CODE'
_TEXT	ENDS
;	COMDAT ?getInstance@?$ConcreteModuleClass@V?$ModuleTag@$03$E?OUTWARD_EMISSION_VELOCITY_MODULE_KEY@FXParticleSystem@@3QBDB$E?OUTWARD_EMISSION_VELOCITY_MODULE_NAME@2@3QBDBVOutwardEmissionVelocityModule@2@VOutwardEmissionVelocityModuleTemplate@2@V?$DefaultParticleModule@$03@2@V?$DefaultParticleModuleTemplate@$03@2@@FXParticleSystem@@@FXParticleSystem@@SAABV12@XZ
_TEXT	SEGMENT PARA USE32 PUBLIC 'CODE'
_TEXT	ENDS
;	COMDAT ??0?$ConcreteModuleClass@V?$ModuleTag@$03$E?SPHERICAL_EMISSION_VELOCITY_MODULE_KEY@FXParticleSystem@@3QBDB$E?SPHERICAL_EMISSION_VELOCITY_MODULE_NAME@2@3QBDBVSphericalEmissionVelocityModule@2@VSphericalEmissionVelocityModuleTemplate@2@V?$DefaultParticleModule@$03@2@V?$DefaultParticleModuleTemplate@$03@2@@FXParticleSystem@@@FXParticleSystem@@AAE@XZ
_TEXT	SEGMENT PARA USE32 PUBLIC 'CODE'
_TEXT	ENDS
;	COMDAT ??1?$ConcreteModuleClass@V?$ModuleTag@$03$E?SPHERICAL_EMISSION_VELOCITY_MODULE_KEY@FXParticleSystem@@3QBDB$E?SPHERICAL_EMISSION_VELOCITY_MODULE_NAME@2@3QBDBVSphericalEmissionVelocityModule@2@VSphericalEmissionVelocityModuleTemplate@2@V?$DefaultParticleModule@$03@2@V?$DefaultParticleModuleTemplate@$03@2@@FXParticleSystem@@@FXParticleSystem@@QAE@XZ
_TEXT	SEGMENT PARA USE32 PUBLIC 'CODE'
_TEXT	ENDS
;	COMDAT ?createTemplate@?$ConcreteModuleClass@V?$ModuleTag@$03$E?SPHERICAL_EMISSION_VELOCITY_MODULE_KEY@FXParticleSystem@@3QBDB$E?SPHERICAL_EMISSION_VELOCITY_MODULE_NAME@2@3QBDBVSphericalEmissionVelocityModule@2@VSphericalEmissionVelocityModuleTemplate@2@V?$DefaultParticleModule@$03@2@V?$DefaultParticleModuleTemplate@$03@2@@FXParticleSystem@@@FXParticleSystem@@QBEPAVSphericalEmissionVelocityModuleTemplate@2@PAVINI@@@Z
_TEXT	SEGMENT PARA USE32 PUBLIC 'CODE'
_TEXT	ENDS
;	COMDAT ?createTemplate@?$ConcreteModuleClass@V?$ModuleTag@$03$E?SPHERICAL_EMISSION_VELOCITY_MODULE_KEY@FXParticleSystem@@3QBDB$E?SPHERICAL_EMISSION_VELOCITY_MODULE_NAME@2@3QBDBVSphericalEmissionVelocityModule@2@VSphericalEmissionVelocityModuleTemplate@2@V?$DefaultParticleModule@$03@2@V?$DefaultParticleModuleTemplate@$03@2@@FXParticleSystem@@@FXParticleSystem@@QBEPAVSphericalEmissionVelocityModuleTemplate@2@XZ
_TEXT	SEGMENT PARA USE32 PUBLIC 'CODE'
_TEXT	ENDS
;	COMDAT ?getClass@?$ConcreteModuleTemplate@V?$ModuleTag@$03$E?SPHERICAL_EMISSION_VELOCITY_MODULE_KEY@FXParticleSystem@@3QBDB$E?SPHERICAL_EMISSION_VELOCITY_MODULE_NAME@2@3QBDBVSphericalEmissionVelocityModule@2@VSphericalEmissionVelocityModuleTemplate@2@V?$DefaultParticleModule@$03@2@V?$DefaultParticleModuleTemplate@$03@2@@FXParticleSystem@@@FXParticleSystem@@QBEABV?$ConcreteModuleClass@V?$ModuleTag@$03$E?SPHERICAL_EMISSION_VELOCITY_MODULE_KEY@FXParticleSystem@@3QBDB$E?SPHERICAL_EMISSION_VELOCITY_MODULE_NAME@2@3QBDBVSphericalEmissionVelocityModule@2@VSphericalEmissionVelocityModuleTemplate@2@V?$DefaultParticleModule@$03@2@V?$DefaultParticleModuleTemplate@$03@2@@FXParticleSystem@@@2@XZ
_TEXT	SEGMENT PARA USE32 PUBLIC 'CODE'
_TEXT	ENDS
;	COMDAT ?getInstance@?$ConcreteModuleClass@V?$ModuleTag@$03$E?SPHERICAL_EMISSION_VELOCITY_MODULE_KEY@FXParticleSystem@@3QBDB$E?SPHERICAL_EMISSION_VELOCITY_MODULE_NAME@2@3QBDBVSphericalEmissionVelocityModule@2@VSphericalEmissionVelocityModuleTemplate@2@V?$DefaultParticleModule@$03@2@V?$DefaultParticleModuleTemplate@$03@2@@FXParticleSystem@@@FXParticleSystem@@SAABV12@XZ
_TEXT	SEGMENT PARA USE32 PUBLIC 'CODE'
_TEXT	ENDS
;	COMDAT ??0?$ConcreteModuleClass@V?$ModuleTag@$04$E?BOX_EMISSION_VOLUME_MODULE_KEY@FXParticleSystem@@3QBDB$E?BOX_EMISSION_VOLUME_MODULE_NAME@2@3QBDBVBoxEmissionVolumeModule@2@VBoxEmissionVolumeModuleTemplate@2@V?$DefaultParticleModule@$04@2@V?$DefaultParticleModuleTemplate@$04@2@@FXParticleSystem@@@FXParticleSystem@@AAE@XZ
_TEXT	SEGMENT PARA USE32 PUBLIC 'CODE'
_TEXT	ENDS
;	COMDAT ??1?$ConcreteModuleClass@V?$ModuleTag@$04$E?BOX_EMISSION_VOLUME_MODULE_KEY@FXParticleSystem@@3QBDB$E?BOX_EMISSION_VOLUME_MODULE_NAME@2@3QBDBVBoxEmissionVolumeModule@2@VBoxEmissionVolumeModuleTemplate@2@V?$DefaultParticleModule@$04@2@V?$DefaultParticleModuleTemplate@$04@2@@FXParticleSystem@@@FXParticleSystem@@QAE@XZ
_TEXT	SEGMENT PARA USE32 PUBLIC 'CODE'
_TEXT	ENDS
;	COMDAT ?createTemplate@?$ConcreteModuleClass@V?$ModuleTag@$04$E?BOX_EMISSION_VOLUME_MODULE_KEY@FXParticleSystem@@3QBDB$E?BOX_EMISSION_VOLUME_MODULE_NAME@2@3QBDBVBoxEmissionVolumeModule@2@VBoxEmissionVolumeModuleTemplate@2@V?$DefaultParticleModule@$04@2@V?$DefaultParticleModuleTemplate@$04@2@@FXParticleSystem@@@FXParticleSystem@@QBEPAVBoxEmissionVolumeModuleTemplate@2@PAVINI@@@Z
_TEXT	SEGMENT PARA USE32 PUBLIC 'CODE'
_TEXT	ENDS
;	COMDAT ?createTemplate@?$ConcreteModuleClass@V?$ModuleTag@$04$E?BOX_EMISSION_VOLUME_MODULE_KEY@FXParticleSystem@@3QBDB$E?BOX_EMISSION_VOLUME_MODULE_NAME@2@3QBDBVBoxEmissionVolumeModule@2@VBoxEmissionVolumeModuleTemplate@2@V?$DefaultParticleModule@$04@2@V?$DefaultParticleModuleTemplate@$04@2@@FXParticleSystem@@@FXParticleSystem@@QBEPAVBoxEmissionVolumeModuleTemplate@2@XZ
_TEXT	SEGMENT PARA USE32 PUBLIC 'CODE'
_TEXT	ENDS
;	COMDAT ?getClass@?$ConcreteModuleTemplate@V?$ModuleTag@$04$E?BOX_EMISSION_VOLUME_MODULE_KEY@FXParticleSystem@@3QBDB$E?BOX_EMISSION_VOLUME_MODULE_NAME@2@3QBDBVBoxEmissionVolumeModule@2@VBoxEmissionVolumeModuleTemplate@2@V?$DefaultParticleModule@$04@2@V?$DefaultParticleModuleTemplate@$04@2@@FXParticleSystem@@@FXParticleSystem@@QBEABV?$ConcreteModuleClass@V?$ModuleTag@$04$E?BOX_EMISSION_VOLUME_MODULE_KEY@FXParticleSystem@@3QBDB$E?BOX_EMISSION_VOLUME_MODULE_NAME@2@3QBDBVBoxEmissionVolumeModule@2@VBoxEmissionVolumeModuleTemplate@2@V?$DefaultParticleModule@$04@2@V?$DefaultParticleModuleTemplate@$04@2@@FXParticleSystem@@@2@XZ
_TEXT	SEGMENT PARA USE32 PUBLIC 'CODE'
_TEXT	ENDS
;	COMDAT ?getInstance@?$ConcreteModuleClass@V?$ModuleTag@$04$E?BOX_EMISSION_VOLUME_MODULE_KEY@FXParticleSystem@@3QBDB$E?BOX_EMISSION_VOLUME_MODULE_NAME@2@3QBDBVBoxEmissionVolumeModule@2@VBoxEmissionVolumeModuleTemplate@2@V?$DefaultParticleModule@$04@2@V?$DefaultParticleModuleTemplate@$04@2@@FXParticleSystem@@@FXParticleSystem@@SAABV12@XZ
_TEXT	SEGMENT PARA USE32 PUBLIC 'CODE'
_TEXT	ENDS
;	COMDAT ??0?$ConcreteModuleClass@V?$ModuleTag@$04$E?CYLINDER_EMISSION_VOLUME_MODULE_KEY@FXParticleSystem@@3QBDB$E?CYLINDER_EMISSION_VOLUME_MODULE_NAME@2@3QBDBVCylinderEmissionVolumeModule@2@VCylinderEmissionVolumeModuleTemplate@2@V?$DefaultParticleModule@$04@2@V?$DefaultParticleModuleTemplate@$04@2@@FXParticleSystem@@@FXParticleSystem@@AAE@XZ
_TEXT	SEGMENT PARA USE32 PUBLIC 'CODE'
_TEXT	ENDS
;	COMDAT ??1?$ConcreteModuleClass@V?$ModuleTag@$04$E?CYLINDER_EMISSION_VOLUME_MODULE_KEY@FXParticleSystem@@3QBDB$E?CYLINDER_EMISSION_VOLUME_MODULE_NAME@2@3QBDBVCylinderEmissionVolumeModule@2@VCylinderEmissionVolumeModuleTemplate@2@V?$DefaultParticleModule@$04@2@V?$DefaultParticleModuleTemplate@$04@2@@FXParticleSystem@@@FXParticleSystem@@QAE@XZ
_TEXT	SEGMENT PARA USE32 PUBLIC 'CODE'
_TEXT	ENDS
;	COMDAT ?createTemplate@?$ConcreteModuleClass@V?$ModuleTag@$04$E?CYLINDER_EMISSION_VOLUME_MODULE_KEY@FXParticleSystem@@3QBDB$E?CYLINDER_EMISSION_VOLUME_MODULE_NAME@2@3QBDBVCylinderEmissionVolumeModule@2@VCylinderEmissionVolumeModuleTemplate@2@V?$DefaultParticleModule@$04@2@V?$DefaultParticleModuleTemplate@$04@2@@FXParticleSystem@@@FXParticleSystem@@QBEPAVCylinderEmissionVolumeModuleTemplate@2@PAVINI@@@Z
_TEXT	SEGMENT PARA USE32 PUBLIC 'CODE'
_TEXT	ENDS
;	COMDAT ?createTemplate@?$ConcreteModuleClass@V?$ModuleTag@$04$E?CYLINDER_EMISSION_VOLUME_MODULE_KEY@FXParticleSystem@@3QBDB$E?CYLINDER_EMISSION_VOLUME_MODULE_NAME@2@3QBDBVCylinderEmissionVolumeModule@2@VCylinderEmissionVolumeModuleTemplate@2@V?$DefaultParticleModule@$04@2@V?$DefaultParticleModuleTemplate@$04@2@@FXParticleSystem@@@FXParticleSystem@@QBEPAVCylinderEmissionVolumeModuleTemplate@2@XZ
_TEXT	SEGMENT PARA USE32 PUBLIC 'CODE'
_TEXT	ENDS
;	COMDAT ?getClass@?$ConcreteModuleTemplate@V?$ModuleTag@$04$E?CYLINDER_EMISSION_VOLUME_MODULE_KEY@FXParticleSystem@@3QBDB$E?CYLINDER_EMISSION_VOLUME_MODULE_NAME@2@3QBDBVCylinderEmissionVolumeModule@2@VCylinderEmissionVolumeModuleTemplate@2@V?$DefaultParticleModule@$04@2@V?$DefaultParticleModuleTemplate@$04@2@@FXParticleSystem@@@FXParticleSystem@@QBEABV?$ConcreteModuleClass@V?$ModuleTag@$04$E?CYLINDER_EMISSION_VOLUME_MODULE_KEY@FXParticleSystem@@3QBDB$E?CYLINDER_EMISSION_VOLUME_MODULE_NAME@2@3QBDBVCylinderEmissionVolumeModule@2@VCylinderEmissionVolumeModuleTemplate@2@V?$DefaultParticleModule@$04@2@V?$DefaultParticleModuleTemplate@$04@2@@FXParticleSystem@@@2@XZ
_TEXT	SEGMENT PARA USE32 PUBLIC 'CODE'
_TEXT	ENDS
;	COMDAT ?getInstance@?$ConcreteModuleClass@V?$ModuleTag@$04$E?CYLINDER_EMISSION_VOLUME_MODULE_KEY@FXParticleSystem@@3QBDB$E?CYLINDER_EMISSION_VOLUME_MODULE_NAME@2@3QBDBVCylinderEmissionVolumeModule@2@VCylinderEmissionVolumeModuleTemplate@2@V?$DefaultParticleModule@$04@2@V?$DefaultParticleModuleTemplate@$04@2@@FXParticleSystem@@@FXParticleSystem@@SAABV12@XZ
_TEXT	SEGMENT PARA USE32 PUBLIC 'CODE'
_TEXT	ENDS
;	COMDAT ??0?$ConcreteModuleClass@V?$ModuleTag@$04$E?LIGHTNING_EMISSION_MODULE_KEY@FXParticleSystem@@3QBDB$E?LIGHTNING_EMISSION_MODULE_NAME@2@3QBDBVLightningEmissionModule@2@VLightningEmissionModuleTemplate@2@V?$DefaultParticleModule@$04@2@V?$DefaultParticleModuleTemplate@$04@2@@FXParticleSystem@@@FXParticleSystem@@AAE@XZ
_TEXT	SEGMENT PARA USE32 PUBLIC 'CODE'
_TEXT	ENDS
;	COMDAT ??1?$ConcreteModuleClass@V?$ModuleTag@$04$E?LIGHTNING_EMISSION_MODULE_KEY@FXParticleSystem@@3QBDB$E?LIGHTNING_EMISSION_MODULE_NAME@2@3QBDBVLightningEmissionModule@2@VLightningEmissionModuleTemplate@2@V?$DefaultParticleModule@$04@2@V?$DefaultParticleModuleTemplate@$04@2@@FXParticleSystem@@@FXParticleSystem@@QAE@XZ
_TEXT	SEGMENT PARA USE32 PUBLIC 'CODE'
_TEXT	ENDS
;	COMDAT ?createTemplate@?$ConcreteModuleClass@V?$ModuleTag@$04$E?LIGHTNING_EMISSION_MODULE_KEY@FXParticleSystem@@3QBDB$E?LIGHTNING_EMISSION_MODULE_NAME@2@3QBDBVLightningEmissionModule@2@VLightningEmissionModuleTemplate@2@V?$DefaultParticleModule@$04@2@V?$DefaultParticleModuleTemplate@$04@2@@FXParticleSystem@@@FXParticleSystem@@QBEPAVLightningEmissionModuleTemplate@2@PAVINI@@@Z
_TEXT	SEGMENT PARA USE32 PUBLIC 'CODE'
_TEXT	ENDS
;	COMDAT ?createTemplate@?$ConcreteModuleClass@V?$ModuleTag@$04$E?LIGHTNING_EMISSION_MODULE_KEY@FXParticleSystem@@3QBDB$E?LIGHTNING_EMISSION_MODULE_NAME@2@3QBDBVLightningEmissionModule@2@VLightningEmissionModuleTemplate@2@V?$DefaultParticleModule@$04@2@V?$DefaultParticleModuleTemplate@$04@2@@FXParticleSystem@@@FXParticleSystem@@QBEPAVLightningEmissionModuleTemplate@2@XZ
_TEXT	SEGMENT PARA USE32 PUBLIC 'CODE'
_TEXT	ENDS
;	COMDAT ?getClass@?$ConcreteModuleTemplate@V?$ModuleTag@$04$E?LIGHTNING_EMISSION_MODULE_KEY@FXParticleSystem@@3QBDB$E?LIGHTNING_EMISSION_MODULE_NAME@2@3QBDBVLightningEmissionModule@2@VLightningEmissionModuleTemplate@2@V?$DefaultParticleModule@$04@2@V?$DefaultParticleModuleTemplate@$04@2@@FXParticleSystem@@@FXParticleSystem@@QBEABV?$ConcreteModuleClass@V?$ModuleTag@$04$E?LIGHTNING_EMISSION_MODULE_KEY@FXParticleSystem@@3QBDB$E?LIGHTNING_EMISSION_MODULE_NAME@2@3QBDBVLightningEmissionModule@2@VLightningEmissionModuleTemplate@2@V?$DefaultParticleModule@$04@2@V?$DefaultParticleModuleTemplate@$04@2@@FXParticleSystem@@@2@XZ
_TEXT	SEGMENT PARA USE32 PUBLIC 'CODE'
_TEXT	ENDS
;	COMDAT ?getInstance@?$ConcreteModuleClass@V?$ModuleTag@$04$E?LIGHTNING_EMISSION_MODULE_KEY@FXParticleSystem@@3QBDB$E?LIGHTNING_EMISSION_MODULE_NAME@2@3QBDBVLightningEmissionModule@2@VLightningEmissionModuleTemplate@2@V?$DefaultParticleModule@$04@2@V?$DefaultParticleModuleTemplate@$04@2@@FXParticleSystem@@@FXParticleSystem@@SAABV12@XZ
_TEXT	SEGMENT PARA USE32 PUBLIC 'CODE'
_TEXT	ENDS
;	COMDAT ??0?$ConcreteModuleClass@V?$ModuleTag@$04$E?LINE_EMISSION_VOLUME_MODULE_KEY@FXParticleSystem@@3QBDB$E?LINE_EMISSION_VOLUME_MODULE_NAME@2@3QBDBVLineEmissionVolumeModule@2@VLineEmissionVolumeModuleTemplate@2@V?$DefaultParticleModule@$04@2@V?$DefaultParticleModuleTemplate@$04@2@@FXParticleSystem@@@FXParticleSystem@@AAE@XZ
_TEXT	SEGMENT PARA USE32 PUBLIC 'CODE'
_TEXT	ENDS
;	COMDAT ??1?$ConcreteModuleClass@V?$ModuleTag@$04$E?LINE_EMISSION_VOLUME_MODULE_KEY@FXParticleSystem@@3QBDB$E?LINE_EMISSION_VOLUME_MODULE_NAME@2@3QBDBVLineEmissionVolumeModule@2@VLineEmissionVolumeModuleTemplate@2@V?$DefaultParticleModule@$04@2@V?$DefaultParticleModuleTemplate@$04@2@@FXParticleSystem@@@FXParticleSystem@@QAE@XZ
_TEXT	SEGMENT PARA USE32 PUBLIC 'CODE'
_TEXT	ENDS
;	COMDAT ?createTemplate@?$ConcreteModuleClass@V?$ModuleTag@$04$E?LINE_EMISSION_VOLUME_MODULE_KEY@FXParticleSystem@@3QBDB$E?LINE_EMISSION_VOLUME_MODULE_NAME@2@3QBDBVLineEmissionVolumeModule@2@VLineEmissionVolumeModuleTemplate@2@V?$DefaultParticleModule@$04@2@V?$DefaultParticleModuleTemplate@$04@2@@FXParticleSystem@@@FXParticleSystem@@QBEPAVLineEmissionVolumeModuleTemplate@2@PAVINI@@@Z
_TEXT	SEGMENT PARA USE32 PUBLIC 'CODE'
_TEXT	ENDS
;	COMDAT ?createTemplate@?$ConcreteModuleClass@V?$ModuleTag@$04$E?LINE_EMISSION_VOLUME_MODULE_KEY@FXParticleSystem@@3QBDB$E?LINE_EMISSION_VOLUME_MODULE_NAME@2@3QBDBVLineEmissionVolumeModule@2@VLineEmissionVolumeModuleTemplate@2@V?$DefaultParticleModule@$04@2@V?$DefaultParticleModuleTemplate@$04@2@@FXParticleSystem@@@FXParticleSystem@@QBEPAVLineEmissionVolumeModuleTemplate@2@XZ
_TEXT	SEGMENT PARA USE32 PUBLIC 'CODE'
_TEXT	ENDS
;	COMDAT ?getClass@?$ConcreteModuleTemplate@V?$ModuleTag@$04$E?LINE_EMISSION_VOLUME_MODULE_KEY@FXParticleSystem@@3QBDB$E?LINE_EMISSION_VOLUME_MODULE_NAME@2@3QBDBVLineEmissionVolumeModule@2@VLineEmissionVolumeModuleTemplate@2@V?$DefaultParticleModule@$04@2@V?$DefaultParticleModuleTemplate@$04@2@@FXParticleSystem@@@FXParticleSystem@@QBEABV?$ConcreteModuleClass@V?$ModuleTag@$04$E?LINE_EMISSION_VOLUME_MODULE_KEY@FXParticleSystem@@3QBDB$E?LINE_EMISSION_VOLUME_MODULE_NAME@2@3QBDBVLineEmissionVolumeModule@2@VLineEmissionVolumeModuleTemplate@2@V?$DefaultParticleModule@$04@2@V?$DefaultParticleModuleTemplate@$04@2@@FXParticleSystem@@@2@XZ
_TEXT	SEGMENT PARA USE32 PUBLIC 'CODE'
_TEXT	ENDS
;	COMDAT ?getInstance@?$ConcreteModuleClass@V?$ModuleTag@$04$E?LINE_EMISSION_VOLUME_MODULE_KEY@FXParticleSystem@@3QBDB$E?LINE_EMISSION_VOLUME_MODULE_NAME@2@3QBDBVLineEmissionVolumeModule@2@VLineEmissionVolumeModuleTemplate@2@V?$DefaultParticleModule@$04@2@V?$DefaultParticleModuleTemplate@$04@2@@FXParticleSystem@@@FXParticleSystem@@SAABV12@XZ
_TEXT	SEGMENT PARA USE32 PUBLIC 'CODE'
_TEXT	ENDS
;	COMDAT ??0?$ConcreteModuleClass@V?$ModuleTag@$04$E?SPHERE_EMISSION_VOLUME_MODULE_KEY@FXParticleSystem@@3QBDB$E?SPHERE_EMISSION_VOLUME_MODULE_NAME@2@3QBDBVSphereEmissionVolumeModule@2@VSphereEmissionVolumeModuleTemplate@2@V?$DefaultParticleModule@$04@2@V?$DefaultParticleModuleTemplate@$04@2@@FXParticleSystem@@@FXParticleSystem@@AAE@XZ
_TEXT	SEGMENT PARA USE32 PUBLIC 'CODE'
_TEXT	ENDS
;	COMDAT ??1?$ConcreteModuleClass@V?$ModuleTag@$04$E?SPHERE_EMISSION_VOLUME_MODULE_KEY@FXParticleSystem@@3QBDB$E?SPHERE_EMISSION_VOLUME_MODULE_NAME@2@3QBDBVSphereEmissionVolumeModule@2@VSphereEmissionVolumeModuleTemplate@2@V?$DefaultParticleModule@$04@2@V?$DefaultParticleModuleTemplate@$04@2@@FXParticleSystem@@@FXParticleSystem@@QAE@XZ
_TEXT	SEGMENT PARA USE32 PUBLIC 'CODE'
_TEXT	ENDS
;	COMDAT ?createTemplate@?$ConcreteModuleClass@V?$ModuleTag@$04$E?SPHERE_EMISSION_VOLUME_MODULE_KEY@FXParticleSystem@@3QBDB$E?SPHERE_EMISSION_VOLUME_MODULE_NAME@2@3QBDBVSphereEmissionVolumeModule@2@VSphereEmissionVolumeModuleTemplate@2@V?$DefaultParticleModule@$04@2@V?$DefaultParticleModuleTemplate@$04@2@@FXParticleSystem@@@FXParticleSystem@@QBEPAVSphereEmissionVolumeModuleTemplate@2@PAVINI@@@Z
_TEXT	SEGMENT PARA USE32 PUBLIC 'CODE'
_TEXT	ENDS
;	COMDAT ?createTemplate@?$ConcreteModuleClass@V?$ModuleTag@$04$E?SPHERE_EMISSION_VOLUME_MODULE_KEY@FXParticleSystem@@3QBDB$E?SPHERE_EMISSION_VOLUME_MODULE_NAME@2@3QBDBVSphereEmissionVolumeModule@2@VSphereEmissionVolumeModuleTemplate@2@V?$DefaultParticleModule@$04@2@V?$DefaultParticleModuleTemplate@$04@2@@FXParticleSystem@@@FXParticleSystem@@QBEPAVSphereEmissionVolumeModuleTemplate@2@XZ
_TEXT	SEGMENT PARA USE32 PUBLIC 'CODE'
_TEXT	ENDS
;	COMDAT ?getClass@?$ConcreteModuleTemplate@V?$ModuleTag@$04$E?SPHERE_EMISSION_VOLUME_MODULE_KEY@FXParticleSystem@@3QBDB$E?SPHERE_EMISSION_VOLUME_MODULE_NAME@2@3QBDBVSphereEmissionVolumeModule@2@VSphereEmissionVolumeModuleTemplate@2@V?$DefaultParticleModule@$04@2@V?$DefaultParticleModuleTemplate@$04@2@@FXParticleSystem@@@FXParticleSystem@@QBEABV?$ConcreteModuleClass@V?$ModuleTag@$04$E?SPHERE_EMISSION_VOLUME_MODULE_KEY@FXParticleSystem@@3QBDB$E?SPHERE_EMISSION_VOLUME_MODULE_NAME@2@3QBDBVSphereEmissionVolumeModule@2@VSphereEmissionVolumeModuleTemplate@2@V?$DefaultParticleModule@$04@2@V?$DefaultParticleModuleTemplate@$04@2@@FXParticleSystem@@@2@XZ
_TEXT	SEGMENT PARA USE32 PUBLIC 'CODE'
_TEXT	ENDS
;	COMDAT ?getInstance@?$ConcreteModuleClass@V?$ModuleTag@$04$E?SPHERE_EMISSION_VOLUME_MODULE_KEY@FXParticleSystem@@3QBDB$E?SPHERE_EMISSION_VOLUME_MODULE_NAME@2@3QBDBVSphereEmissionVolumeModule@2@VSphereEmissionVolumeModuleTemplate@2@V?$DefaultParticleModule@$04@2@V?$DefaultParticleModuleTemplate@$04@2@@FXParticleSystem@@@FXParticleSystem@@SAABV12@XZ
_TEXT	SEGMENT PARA USE32 PUBLIC 'CODE'
_TEXT	ENDS
;	COMDAT ??0?$ConcreteModuleClass@V?$ModuleTag@$05$E?BUTTERFLY_DRAW_MODULE_KEY@FXParticleSystem@@3QBDB$E?BUTTERFLY_DRAW_MODULE_NAME@2@3QBDBVButterflyDrawModule@2@VButterflyDrawModuleTemplate@2@V?$DefaultParticleModule@$05@2@V?$DefaultParticleModuleTemplate@$05@2@@FXParticleSystem@@@FXParticleSystem@@AAE@XZ
_TEXT	SEGMENT PARA USE32 PUBLIC 'CODE'
_TEXT	ENDS
;	COMDAT ??1?$ConcreteModuleClass@V?$ModuleTag@$05$E?BUTTERFLY_DRAW_MODULE_KEY@FXParticleSystem@@3QBDB$E?BUTTERFLY_DRAW_MODULE_NAME@2@3QBDBVButterflyDrawModule@2@VButterflyDrawModuleTemplate@2@V?$DefaultParticleModule@$05@2@V?$DefaultParticleModuleTemplate@$05@2@@FXParticleSystem@@@FXParticleSystem@@QAE@XZ
_TEXT	SEGMENT PARA USE32 PUBLIC 'CODE'
_TEXT	ENDS
;	COMDAT ?createTemplate@?$ConcreteModuleClass@V?$ModuleTag@$05$E?BUTTERFLY_DRAW_MODULE_KEY@FXParticleSystem@@3QBDB$E?BUTTERFLY_DRAW_MODULE_NAME@2@3QBDBVButterflyDrawModule@2@VButterflyDrawModuleTemplate@2@V?$DefaultParticleModule@$05@2@V?$DefaultParticleModuleTemplate@$05@2@@FXParticleSystem@@@FXParticleSystem@@QBEPAVButterflyDrawModuleTemplate@2@PAVINI@@@Z
_TEXT	SEGMENT PARA USE32 PUBLIC 'CODE'
_TEXT	ENDS
;	COMDAT ?createTemplate@?$ConcreteModuleClass@V?$ModuleTag@$05$E?BUTTERFLY_DRAW_MODULE_KEY@FXParticleSystem@@3QBDB$E?BUTTERFLY_DRAW_MODULE_NAME@2@3QBDBVButterflyDrawModule@2@VButterflyDrawModuleTemplate@2@V?$DefaultParticleModule@$05@2@V?$DefaultParticleModuleTemplate@$05@2@@FXParticleSystem@@@FXParticleSystem@@QBEPAVButterflyDrawModuleTemplate@2@XZ
_TEXT	SEGMENT PARA USE32 PUBLIC 'CODE'
_TEXT	ENDS
;	COMDAT ?getClass@?$ConcreteModuleTemplate@V?$ModuleTag@$05$E?BUTTERFLY_DRAW_MODULE_KEY@FXParticleSystem@@3QBDB$E?BUTTERFLY_DRAW_MODULE_NAME@2@3QBDBVButterflyDrawModule@2@VButterflyDrawModuleTemplate@2@V?$DefaultParticleModule@$05@2@V?$DefaultParticleModuleTemplate@$05@2@@FXParticleSystem@@@FXParticleSystem@@QBEABV?$ConcreteModuleClass@V?$ModuleTag@$05$E?BUTTERFLY_DRAW_MODULE_KEY@FXParticleSystem@@3QBDB$E?BUTTERFLY_DRAW_MODULE_NAME@2@3QBDBVButterflyDrawModule@2@VButterflyDrawModuleTemplate@2@V?$DefaultParticleModule@$05@2@V?$DefaultParticleModuleTemplate@$05@2@@FXParticleSystem@@@2@XZ
_TEXT	SEGMENT PARA USE32 PUBLIC 'CODE'
_TEXT	ENDS
;	COMDAT ?getInstance@?$ConcreteModuleClass@V?$ModuleTag@$05$E?BUTTERFLY_DRAW_MODULE_KEY@FXParticleSystem@@3QBDB$E?BUTTERFLY_DRAW_MODULE_NAME@2@3QBDBVButterflyDrawModule@2@VButterflyDrawModuleTemplate@2@V?$DefaultParticleModule@$05@2@V?$DefaultParticleModuleTemplate@$05@2@@FXParticleSystem@@@FXParticleSystem@@SAABV12@XZ
_TEXT	SEGMENT PARA USE32 PUBLIC 'CODE'
_TEXT	ENDS
;	COMDAT ??0?$ConcreteModuleClass@V?$ModuleTag@$05$E?LIGHTNING_DRAW_MODULE_KEY@FXParticleSystem@@3QBDB$E?LIGHTNING_DRAW_MODULE_NAME@2@3QBDBVLightningDrawModule@2@VLightningDrawModuleTemplate@2@V?$DefaultParticleModule@$05@2@V?$DefaultParticleModuleTemplate@$05@2@@FXParticleSystem@@@FXParticleSystem@@AAE@XZ
_TEXT	SEGMENT PARA USE32 PUBLIC 'CODE'
_TEXT	ENDS
;	COMDAT ??1?$ConcreteModuleClass@V?$ModuleTag@$05$E?LIGHTNING_DRAW_MODULE_KEY@FXParticleSystem@@3QBDB$E?LIGHTNING_DRAW_MODULE_NAME@2@3QBDBVLightningDrawModule@2@VLightningDrawModuleTemplate@2@V?$DefaultParticleModule@$05@2@V?$DefaultParticleModuleTemplate@$05@2@@FXParticleSystem@@@FXParticleSystem@@QAE@XZ
_TEXT	SEGMENT PARA USE32 PUBLIC 'CODE'
_TEXT	ENDS
;	COMDAT ?createTemplate@?$ConcreteModuleClass@V?$ModuleTag@$05$E?LIGHTNING_DRAW_MODULE_KEY@FXParticleSystem@@3QBDB$E?LIGHTNING_DRAW_MODULE_NAME@2@3QBDBVLightningDrawModule@2@VLightningDrawModuleTemplate@2@V?$DefaultParticleModule@$05@2@V?$DefaultParticleModuleTemplate@$05@2@@FXParticleSystem@@@FXParticleSystem@@QBEPAVLightningDrawModuleTemplate@2@PAVINI@@@Z
_TEXT	SEGMENT PARA USE32 PUBLIC 'CODE'
_TEXT	ENDS
;	COMDAT ?createTemplate@?$ConcreteModuleClass@V?$ModuleTag@$05$E?LIGHTNING_DRAW_MODULE_KEY@FXParticleSystem@@3QBDB$E?LIGHTNING_DRAW_MODULE_NAME@2@3QBDBVLightningDrawModule@2@VLightningDrawModuleTemplate@2@V?$DefaultParticleModule@$05@2@V?$DefaultParticleModuleTemplate@$05@2@@FXParticleSystem@@@FXParticleSystem@@QBEPAVLightningDrawModuleTemplate@2@XZ
_TEXT	SEGMENT PARA USE32 PUBLIC 'CODE'
_TEXT	ENDS
;	COMDAT ?getClass@?$ConcreteModuleTemplate@V?$ModuleTag@$05$E?LIGHTNING_DRAW_MODULE_KEY@FXParticleSystem@@3QBDB$E?LIGHTNING_DRAW_MODULE_NAME@2@3QBDBVLightningDrawModule@2@VLightningDrawModuleTemplate@2@V?$DefaultParticleModule@$05@2@V?$DefaultParticleModuleTemplate@$05@2@@FXParticleSystem@@@FXParticleSystem@@QBEABV?$ConcreteModuleClass@V?$ModuleTag@$05$E?LIGHTNING_DRAW_MODULE_KEY@FXParticleSystem@@3QBDB$E?LIGHTNING_DRAW_MODULE_NAME@2@3QBDBVLightningDrawModule@2@VLightningDrawModuleTemplate@2@V?$DefaultParticleModule@$05@2@V?$DefaultParticleModuleTemplate@$05@2@@FXParticleSystem@@@2@XZ
_TEXT	SEGMENT PARA USE32 PUBLIC 'CODE'
_TEXT	ENDS
;	COMDAT ?getInstance@?$ConcreteModuleClass@V?$ModuleTag@$05$E?LIGHTNING_DRAW_MODULE_KEY@FXParticleSystem@@3QBDB$E?LIGHTNING_DRAW_MODULE_NAME@2@3QBDBVLightningDrawModule@2@VLightningDrawModuleTemplate@2@V?$DefaultParticleModule@$05@2@V?$DefaultParticleModuleTemplate@$05@2@@FXParticleSystem@@@FXParticleSystem@@SAABV12@XZ
_TEXT	SEGMENT PARA USE32 PUBLIC 'CODE'
_TEXT	ENDS
;	COMDAT ??0?$ConcreteModuleClass@V?$ModuleTag@$05$E?QUAD_DRAW_MODULE_KEY@FXParticleSystem@@3QBDB$E?QUAD_DRAW_MODULE_NAME@2@3QBDBVQuadDrawModule@2@VQuadDrawModuleTemplate@2@V?$DefaultParticleModule@$05@2@V?$DefaultParticleModuleTemplate@$05@2@@FXParticleSystem@@@FXParticleSystem@@AAE@XZ
_TEXT	SEGMENT PARA USE32 PUBLIC 'CODE'
_TEXT	ENDS
;	COMDAT ??1?$ConcreteModuleClass@V?$ModuleTag@$05$E?QUAD_DRAW_MODULE_KEY@FXParticleSystem@@3QBDB$E?QUAD_DRAW_MODULE_NAME@2@3QBDBVQuadDrawModule@2@VQuadDrawModuleTemplate@2@V?$DefaultParticleModule@$05@2@V?$DefaultParticleModuleTemplate@$05@2@@FXParticleSystem@@@FXParticleSystem@@QAE@XZ
_TEXT	SEGMENT PARA USE32 PUBLIC 'CODE'
_TEXT	ENDS
;	COMDAT ?createTemplate@?$ConcreteModuleClass@V?$ModuleTag@$05$E?QUAD_DRAW_MODULE_KEY@FXParticleSystem@@3QBDB$E?QUAD_DRAW_MODULE_NAME@2@3QBDBVQuadDrawModule@2@VQuadDrawModuleTemplate@2@V?$DefaultParticleModule@$05@2@V?$DefaultParticleModuleTemplate@$05@2@@FXParticleSystem@@@FXParticleSystem@@QBEPAVQuadDrawModuleTemplate@2@PAVINI@@@Z
_TEXT	SEGMENT PARA USE32 PUBLIC 'CODE'
_TEXT	ENDS
;	COMDAT ?createTemplate@?$ConcreteModuleClass@V?$ModuleTag@$05$E?QUAD_DRAW_MODULE_KEY@FXParticleSystem@@3QBDB$E?QUAD_DRAW_MODULE_NAME@2@3QBDBVQuadDrawModule@2@VQuadDrawModuleTemplate@2@V?$DefaultParticleModule@$05@2@V?$DefaultParticleModuleTemplate@$05@2@@FXParticleSystem@@@FXParticleSystem@@QBEPAVQuadDrawModuleTemplate@2@XZ
_TEXT	SEGMENT PARA USE32 PUBLIC 'CODE'
_TEXT	ENDS
;	COMDAT ?getClass@?$ConcreteModuleTemplate@V?$ModuleTag@$05$E?QUAD_DRAW_MODULE_KEY@FXParticleSystem@@3QBDB$E?QUAD_DRAW_MODULE_NAME@2@3QBDBVQuadDrawModule@2@VQuadDrawModuleTemplate@2@V?$DefaultParticleModule@$05@2@V?$DefaultParticleModuleTemplate@$05@2@@FXParticleSystem@@@FXParticleSystem@@QBEABV?$ConcreteModuleClass@V?$ModuleTag@$05$E?QUAD_DRAW_MODULE_KEY@FXParticleSystem@@3QBDB$E?QUAD_DRAW_MODULE_NAME@2@3QBDBVQuadDrawModule@2@VQuadDrawModuleTemplate@2@V?$DefaultParticleModule@$05@2@V?$DefaultParticleModuleTemplate@$05@2@@FXParticleSystem@@@2@XZ
_TEXT	SEGMENT PARA USE32 PUBLIC 'CODE'
_TEXT	ENDS
;	COMDAT ?getInstance@?$ConcreteModuleClass@V?$ModuleTag@$05$E?QUAD_DRAW_MODULE_KEY@FXParticleSystem@@3QBDB$E?QUAD_DRAW_MODULE_NAME@2@3QBDBVQuadDrawModule@2@VQuadDrawModuleTemplate@2@V?$DefaultParticleModule@$05@2@V?$DefaultParticleModuleTemplate@$05@2@@FXParticleSystem@@@FXParticleSystem@@SAABV12@XZ
_TEXT	SEGMENT PARA USE32 PUBLIC 'CODE'
_TEXT	ENDS
;	COMDAT ??0?$ConcreteModuleClass@V?$ModuleTag@$05$E?RENDEROBJECT_DRAW_MODULE_KEY@FXParticleSystem@@3QBDB$E?RENDEROBJECT_DRAW_MODULE_NAME@2@3QBDBVRenderObjectDrawModule@2@VRenderObjectDrawModuleTemplate@2@V?$DefaultParticleModule@$05@2@V?$DefaultParticleModuleTemplate@$05@2@@FXParticleSystem@@@FXParticleSystem@@AAE@XZ
_TEXT	SEGMENT PARA USE32 PUBLIC 'CODE'
_TEXT	ENDS
;	COMDAT ??1?$ConcreteModuleClass@V?$ModuleTag@$05$E?RENDEROBJECT_DRAW_MODULE_KEY@FXParticleSystem@@3QBDB$E?RENDEROBJECT_DRAW_MODULE_NAME@2@3QBDBVRenderObjectDrawModule@2@VRenderObjectDrawModuleTemplate@2@V?$DefaultParticleModule@$05@2@V?$DefaultParticleModuleTemplate@$05@2@@FXParticleSystem@@@FXParticleSystem@@QAE@XZ
_TEXT	SEGMENT PARA USE32 PUBLIC 'CODE'
_TEXT	ENDS
;	COMDAT ?createTemplate@?$ConcreteModuleClass@V?$ModuleTag@$05$E?RENDEROBJECT_DRAW_MODULE_KEY@FXParticleSystem@@3QBDB$E?RENDEROBJECT_DRAW_MODULE_NAME@2@3QBDBVRenderObjectDrawModule@2@VRenderObjectDrawModuleTemplate@2@V?$DefaultParticleModule@$05@2@V?$DefaultParticleModuleTemplate@$05@2@@FXParticleSystem@@@FXParticleSystem@@QBEPAVRenderObjectDrawModuleTemplate@2@PAVINI@@@Z
_TEXT	SEGMENT PARA USE32 PUBLIC 'CODE'
_TEXT	ENDS
;	COMDAT ?createTemplate@?$ConcreteModuleClass@V?$ModuleTag@$05$E?RENDEROBJECT_DRAW_MODULE_KEY@FXParticleSystem@@3QBDB$E?RENDEROBJECT_DRAW_MODULE_NAME@2@3QBDBVRenderObjectDrawModule@2@VRenderObjectDrawModuleTemplate@2@V?$DefaultParticleModule@$05@2@V?$DefaultParticleModuleTemplate@$05@2@@FXParticleSystem@@@FXParticleSystem@@QBEPAVRenderObjectDrawModuleTemplate@2@XZ
_TEXT	SEGMENT PARA USE32 PUBLIC 'CODE'
_TEXT	ENDS
;	COMDAT ?getClass@?$ConcreteModuleTemplate@V?$ModuleTag@$05$E?RENDEROBJECT_DRAW_MODULE_KEY@FXParticleSystem@@3QBDB$E?RENDEROBJECT_DRAW_MODULE_NAME@2@3QBDBVRenderObjectDrawModule@2@VRenderObjectDrawModuleTemplate@2@V?$DefaultParticleModule@$05@2@V?$DefaultParticleModuleTemplate@$05@2@@FXParticleSystem@@@FXParticleSystem@@QBEABV?$ConcreteModuleClass@V?$ModuleTag@$05$E?RENDEROBJECT_DRAW_MODULE_KEY@FXParticleSystem@@3QBDB$E?RENDEROBJECT_DRAW_MODULE_NAME@2@3QBDBVRenderObjectDrawModule@2@VRenderObjectDrawModuleTemplate@2@V?$DefaultParticleModule@$05@2@V?$DefaultParticleModuleTemplate@$05@2@@FXParticleSystem@@@2@XZ
_TEXT	SEGMENT PARA USE32 PUBLIC 'CODE'
_TEXT	ENDS
;	COMDAT ?getInstance@?$ConcreteModuleClass@V?$ModuleTag@$05$E?RENDEROBJECT_DRAW_MODULE_KEY@FXParticleSystem@@3QBDB$E?RENDEROBJECT_DRAW_MODULE_NAME@2@3QBDBVRenderObjectDrawModule@2@VRenderObjectDrawModuleTemplate@2@V?$DefaultParticleModule@$05@2@V?$DefaultParticleModuleTemplate@$05@2@@FXParticleSystem@@@FXParticleSystem@@SAABV12@XZ
_TEXT	SEGMENT PARA USE32 PUBLIC 'CODE'
_TEXT	ENDS
;	COMDAT ??0?$ConcreteModuleClass@V?$ModuleTag@$05$E?STREAK_DRAW_MODULE_KEY@FXParticleSystem@@3QBDB$E?STREAK_DRAW_MODULE_NAME@2@3QBDBVStreakDrawModule@2@VStreakDrawModuleTemplate@2@V?$DefaultParticleModule@$05@2@V?$DefaultParticleModuleTemplate@$05@2@@FXParticleSystem@@@FXParticleSystem@@AAE@XZ
_TEXT	SEGMENT PARA USE32 PUBLIC 'CODE'
_TEXT	ENDS
;	COMDAT ??1?$ConcreteModuleClass@V?$ModuleTag@$05$E?STREAK_DRAW_MODULE_KEY@FXParticleSystem@@3QBDB$E?STREAK_DRAW_MODULE_NAME@2@3QBDBVStreakDrawModule@2@VStreakDrawModuleTemplate@2@V?$DefaultParticleModule@$05@2@V?$DefaultParticleModuleTemplate@$05@2@@FXParticleSystem@@@FXParticleSystem@@QAE@XZ
_TEXT	SEGMENT PARA USE32 PUBLIC 'CODE'
_TEXT	ENDS
;	COMDAT ?createTemplate@?$ConcreteModuleClass@V?$ModuleTag@$05$E?STREAK_DRAW_MODULE_KEY@FXParticleSystem@@3QBDB$E?STREAK_DRAW_MODULE_NAME@2@3QBDBVStreakDrawModule@2@VStreakDrawModuleTemplate@2@V?$DefaultParticleModule@$05@2@V?$DefaultParticleModuleTemplate@$05@2@@FXParticleSystem@@@FXParticleSystem@@QBEPAVStreakDrawModuleTemplate@2@PAVINI@@@Z
_TEXT	SEGMENT PARA USE32 PUBLIC 'CODE'
_TEXT	ENDS
;	COMDAT ?createTemplate@?$ConcreteModuleClass@V?$ModuleTag@$05$E?STREAK_DRAW_MODULE_KEY@FXParticleSystem@@3QBDB$E?STREAK_DRAW_MODULE_NAME@2@3QBDBVStreakDrawModule@2@VStreakDrawModuleTemplate@2@V?$DefaultParticleModule@$05@2@V?$DefaultParticleModuleTemplate@$05@2@@FXParticleSystem@@@FXParticleSystem@@QBEPAVStreakDrawModuleTemplate@2@XZ
_TEXT	SEGMENT PARA USE32 PUBLIC 'CODE'
_TEXT	ENDS
;	COMDAT ?getClass@?$ConcreteModuleTemplate@V?$ModuleTag@$05$E?STREAK_DRAW_MODULE_KEY@FXParticleSystem@@3QBDB$E?STREAK_DRAW_MODULE_NAME@2@3QBDBVStreakDrawModule@2@VStreakDrawModuleTemplate@2@V?$DefaultParticleModule@$05@2@V?$DefaultParticleModuleTemplate@$05@2@@FXParticleSystem@@@FXParticleSystem@@QBEABV?$ConcreteModuleClass@V?$ModuleTag@$05$E?STREAK_DRAW_MODULE_KEY@FXParticleSystem@@3QBDB$E?STREAK_DRAW_MODULE_NAME@2@3QBDBVStreakDrawModule@2@VStreakDrawModuleTemplate@2@V?$DefaultParticleModule@$05@2@V?$DefaultParticleModuleTemplate@$05@2@@FXParticleSystem@@@2@XZ
_TEXT	SEGMENT PARA USE32 PUBLIC 'CODE'
_TEXT	ENDS
;	COMDAT ?getInstance@?$ConcreteModuleClass@V?$ModuleTag@$05$E?STREAK_DRAW_MODULE_KEY@FXParticleSystem@@3QBDB$E?STREAK_DRAW_MODULE_NAME@2@3QBDBVStreakDrawModule@2@VStreakDrawModuleTemplate@2@V?$DefaultParticleModule@$05@2@V?$DefaultParticleModuleTemplate@$05@2@@FXParticleSystem@@@FXParticleSystem@@SAABV12@XZ
_TEXT	SEGMENT PARA USE32 PUBLIC 'CODE'
_TEXT	ENDS
;	COMDAT ??0?$ConcreteModuleClass@V?$ModuleTag@$07$E?LIFE_EVENT_MODULE_KEY@FXParticleSystem@@3QBDB$E?LIFE_EVENT_MODULE_NAME@2@3QBDBVLifeEventModule@2@VLifeEventModuleTemplate@2@VParticleLifeEventModule@2@VParticleLifeEventModuleTemplate@2@@FXParticleSystem@@@FXParticleSystem@@AAE@XZ
_TEXT	SEGMENT PARA USE32 PUBLIC 'CODE'
_TEXT	ENDS
;	COMDAT ??1?$ConcreteModuleClass@V?$ModuleTag@$07$E?LIFE_EVENT_MODULE_KEY@FXParticleSystem@@3QBDB$E?LIFE_EVENT_MODULE_NAME@2@3QBDBVLifeEventModule@2@VLifeEventModuleTemplate@2@VParticleLifeEventModule@2@VParticleLifeEventModuleTemplate@2@@FXParticleSystem@@@FXParticleSystem@@QAE@XZ
_TEXT	SEGMENT PARA USE32 PUBLIC 'CODE'
_TEXT	ENDS
;	COMDAT ?createTemplate@?$ConcreteModuleClass@V?$ModuleTag@$07$E?LIFE_EVENT_MODULE_KEY@FXParticleSystem@@3QBDB$E?LIFE_EVENT_MODULE_NAME@2@3QBDBVLifeEventModule@2@VLifeEventModuleTemplate@2@VParticleLifeEventModule@2@VParticleLifeEventModuleTemplate@2@@FXParticleSystem@@@FXParticleSystem@@QBEPAVLifeEventModuleTemplate@2@PAVINI@@@Z
_TEXT	SEGMENT PARA USE32 PUBLIC 'CODE'
_TEXT	ENDS
;	COMDAT ?createTemplate@?$ConcreteModuleClass@V?$ModuleTag@$07$E?LIFE_EVENT_MODULE_KEY@FXParticleSystem@@3QBDB$E?LIFE_EVENT_MODULE_NAME@2@3QBDBVLifeEventModule@2@VLifeEventModuleTemplate@2@VParticleLifeEventModule@2@VParticleLifeEventModuleTemplate@2@@FXParticleSystem@@@FXParticleSystem@@QBEPAVLifeEventModuleTemplate@2@XZ
_TEXT	SEGMENT PARA USE32 PUBLIC 'CODE'
_TEXT	ENDS
;	COMDAT ?getClass@?$ConcreteModuleTemplate@V?$ModuleTag@$07$E?LIFE_EVENT_MODULE_KEY@FXParticleSystem@@3QBDB$E?LIFE_EVENT_MODULE_NAME@2@3QBDBVLifeEventModule@2@VLifeEventModuleTemplate@2@VParticleLifeEventModule@2@VParticleLifeEventModuleTemplate@2@@FXParticleSystem@@@FXParticleSystem@@QBEABV?$ConcreteModuleClass@V?$ModuleTag@$07$E?LIFE_EVENT_MODULE_KEY@FXParticleSystem@@3QBDB$E?LIFE_EVENT_MODULE_NAME@2@3QBDBVLifeEventModule@2@VLifeEventModuleTemplate@2@VParticleLifeEventModule@2@VParticleLifeEventModuleTemplate@2@@FXParticleSystem@@@2@XZ
_TEXT	SEGMENT PARA USE32 PUBLIC 'CODE'
_TEXT	ENDS
;	COMDAT ?getInstance@?$ConcreteModuleClass@V?$ModuleTag@$07$E?LIFE_EVENT_MODULE_KEY@FXParticleSystem@@3QBDB$E?LIFE_EVENT_MODULE_NAME@2@3QBDBVLifeEventModule@2@VLifeEventModuleTemplate@2@VParticleLifeEventModule@2@VParticleLifeEventModuleTemplate@2@@FXParticleSystem@@@FXParticleSystem@@SAABV12@XZ
_TEXT	SEGMENT PARA USE32 PUBLIC 'CODE'
_TEXT	ENDS
;	COMDAT ??0?$ConcreteModuleClass@V?$ModuleTag@$07$E?TERRAIN_COLLISION_MODULE_KEY@FXParticleSystem@@3QBDB$E?TERRAIN_COLLISION_MODULE_NAME@2@3QBDBVTerrainCollisionModule@2@VTerrainCollisionModuleTemplate@2@VParticleTerrainCollisionModule@2@VParticleTerrainCollisionModuleTemplate@2@@FXParticleSystem@@@FXParticleSystem@@AAE@XZ
_TEXT	SEGMENT PARA USE32 PUBLIC 'CODE'
_TEXT	ENDS
;	COMDAT ??1?$ConcreteModuleClass@V?$ModuleTag@$07$E?TERRAIN_COLLISION_MODULE_KEY@FXParticleSystem@@3QBDB$E?TERRAIN_COLLISION_MODULE_NAME@2@3QBDBVTerrainCollisionModule@2@VTerrainCollisionModuleTemplate@2@VParticleTerrainCollisionModule@2@VParticleTerrainCollisionModuleTemplate@2@@FXParticleSystem@@@FXParticleSystem@@QAE@XZ
_TEXT	SEGMENT PARA USE32 PUBLIC 'CODE'
_TEXT	ENDS
;	COMDAT ?createTemplate@?$ConcreteModuleClass@V?$ModuleTag@$07$E?TERRAIN_COLLISION_MODULE_KEY@FXParticleSystem@@3QBDB$E?TERRAIN_COLLISION_MODULE_NAME@2@3QBDBVTerrainCollisionModule@2@VTerrainCollisionModuleTemplate@2@VParticleTerrainCollisionModule@2@VParticleTerrainCollisionModuleTemplate@2@@FXParticleSystem@@@FXParticleSystem@@QBEPAVTerrainCollisionModuleTemplate@2@PAVINI@@@Z
_TEXT	SEGMENT PARA USE32 PUBLIC 'CODE'
_TEXT	ENDS
;	COMDAT ?createTemplate@?$ConcreteModuleClass@V?$ModuleTag@$07$E?TERRAIN_COLLISION_MODULE_KEY@FXParticleSystem@@3QBDB$E?TERRAIN_COLLISION_MODULE_NAME@2@3QBDBVTerrainCollisionModule@2@VTerrainCollisionModuleTemplate@2@VParticleTerrainCollisionModule@2@VParticleTerrainCollisionModuleTemplate@2@@FXParticleSystem@@@FXParticleSystem@@QBEPAVTerrainCollisionModuleTemplate@2@XZ
_TEXT	SEGMENT PARA USE32 PUBLIC 'CODE'
_TEXT	ENDS
;	COMDAT ?getClass@?$ConcreteModuleTemplate@V?$ModuleTag@$07$E?TERRAIN_COLLISION_MODULE_KEY@FXParticleSystem@@3QBDB$E?TERRAIN_COLLISION_MODULE_NAME@2@3QBDBVTerrainCollisionModule@2@VTerrainCollisionModuleTemplate@2@VParticleTerrainCollisionModule@2@VParticleTerrainCollisionModuleTemplate@2@@FXParticleSystem@@@FXParticleSystem@@QBEABV?$ConcreteModuleClass@V?$ModuleTag@$07$E?TERRAIN_COLLISION_MODULE_KEY@FXParticleSystem@@3QBDB$E?TERRAIN_COLLISION_MODULE_NAME@2@3QBDBVTerrainCollisionModule@2@VTerrainCollisionModuleTemplate@2@VParticleTerrainCollisionModule@2@VParticleTerrainCollisionModuleTemplate@2@@FXParticleSystem@@@2@XZ
_TEXT	SEGMENT PARA USE32 PUBLIC 'CODE'
_TEXT	ENDS
;	COMDAT ?getInstance@?$ConcreteModuleClass@V?$ModuleTag@$07$E?TERRAIN_COLLISION_MODULE_KEY@FXParticleSystem@@3QBDB$E?TERRAIN_COLLISION_MODULE_NAME@2@3QBDBVTerrainCollisionModule@2@VTerrainCollisionModuleTemplate@2@VParticleTerrainCollisionModule@2@VParticleTerrainCollisionModuleTemplate@2@@FXParticleSystem@@@FXParticleSystem@@SAABV12@XZ
_TEXT	SEGMENT PARA USE32 PUBLIC 'CODE'
_TEXT	ENDS
;	COMDAT ??0?$ConcreteModuleClass@UOrthoEmissionVelocityModuleTag@FXParticleSystem@@@FXParticleSystem@@AAE@XZ
_TEXT	SEGMENT PARA USE32 PUBLIC 'CODE'
_TEXT	ENDS
;	COMDAT ??1?$ConcreteModuleClass@UOrthoEmissionVelocityModuleTag@FXParticleSystem@@@FXParticleSystem@@QAE@XZ
_TEXT	SEGMENT PARA USE32 PUBLIC 'CODE'
_TEXT	ENDS
;	COMDAT ?createTemplate@?$ConcreteModuleClass@UOrthoEmissionVelocityModuleTag@FXParticleSystem@@@FXParticleSystem@@QBEPAVOrthoEmissionVelocityModuleTemplate@2@PAVINI@@@Z
_TEXT	SEGMENT PARA USE32 PUBLIC 'CODE'
_TEXT	ENDS
;	COMDAT ?createTemplate@?$ConcreteModuleClass@UOrthoEmissionVelocityModuleTag@FXParticleSystem@@@FXParticleSystem@@QBEPAVOrthoEmissionVelocityModuleTemplate@2@XZ
_TEXT	SEGMENT PARA USE32 PUBLIC 'CODE'
_TEXT	ENDS
;	COMDAT ?getClass@?$ConcreteModuleTemplate@UOrthoEmissionVelocityModuleTag@FXParticleSystem@@@FXParticleSystem@@QBEABV?$ConcreteModuleClass@UOrthoEmissionVelocityModuleTag@FXParticleSystem@@@2@XZ
_TEXT	SEGMENT PARA USE32 PUBLIC 'CODE'
_TEXT	ENDS
;	COMDAT ?getInstance@?$ConcreteModuleClass@UOrthoEmissionVelocityModuleTag@FXParticleSystem@@@FXParticleSystem@@SAABV12@XZ
_TEXT	SEGMENT PARA USE32 PUBLIC 'CODE'
_TEXT	ENDS
;	COMDAT ??0?$ConcreteModuleClass@UPointEmissionVolumeModuleTag@FXParticleSystem@@@FXParticleSystem@@AAE@XZ
_TEXT	SEGMENT PARA USE32 PUBLIC 'CODE'
_TEXT	ENDS
;	COMDAT ??1?$ConcreteModuleClass@UPointEmissionVolumeModuleTag@FXParticleSystem@@@FXParticleSystem@@QAE@XZ
_TEXT	SEGMENT PARA USE32 PUBLIC 'CODE'
_TEXT	ENDS
;	COMDAT ?createTemplate@?$ConcreteModuleClass@UPointEmissionVolumeModuleTag@FXParticleSystem@@@FXParticleSystem@@QBEPAVPointEmissionVolumeModuleTemplate@2@PAVINI@@@Z
_TEXT	SEGMENT PARA USE32 PUBLIC 'CODE'
_TEXT	ENDS
;	COMDAT ?createTemplate@?$ConcreteModuleClass@UPointEmissionVolumeModuleTag@FXParticleSystem@@@FXParticleSystem@@QBEPAVPointEmissionVolumeModuleTemplate@2@XZ
_TEXT	SEGMENT PARA USE32 PUBLIC 'CODE'
_TEXT	ENDS
;	COMDAT ?getClass@?$ConcreteModuleTemplate@UPointEmissionVolumeModuleTag@FXParticleSystem@@@FXParticleSystem@@QBEABV?$ConcreteModuleClass@UPointEmissionVolumeModuleTag@FXParticleSystem@@@2@XZ
_TEXT	SEGMENT PARA USE32 PUBLIC 'CODE'
_TEXT	ENDS
;	COMDAT ?getInstance@?$ConcreteModuleClass@UPointEmissionVolumeModuleTag@FXParticleSystem@@@FXParticleSystem@@SAABV12@XZ
_TEXT	SEGMENT PARA USE32 PUBLIC 'CODE'
_TEXT	ENDS
;	COMDAT ??0?$ConcreteModuleTemplate@V?$DefaultModuleTag@$0A@@FXParticleSystem@@@FXParticleSystem@@QAE@ABV01@@Z
_TEXT	SEGMENT PARA USE32 PUBLIC 'CODE'
_TEXT	ENDS
;	COMDAT ??0?$ConcreteModuleTemplate@V?$DefaultModuleTag@$0A@@FXParticleSystem@@@FXParticleSystem@@QAE@XZ
_TEXT	SEGMENT PARA USE32 PUBLIC 'CODE'
_TEXT	ENDS
;	COMDAT ??1?$ConcreteModuleTemplate@V?$DefaultModuleTag@$0A@@FXParticleSystem@@@FXParticleSystem@@QAE@XZ
_TEXT	SEGMENT PARA USE32 PUBLIC 'CODE'
_TEXT	ENDS
;	COMDAT ??4?$ConcreteModuleTemplate@V?$DefaultModuleTag@$0A@@FXParticleSystem@@@FXParticleSystem@@QAEAAV01@ABV01@@Z
_TEXT	SEGMENT PARA USE32 PUBLIC 'CODE'
_TEXT	ENDS
;	COMDAT ?createModule@?$ConcreteModuleTemplate@V?$DefaultModuleTag@$0A@@FXParticleSystem@@@FXParticleSystem@@QAEPAV?$DefaultModule@$0A@@2@AAV?$TrackingPtr@VParticleSystem@FXParticleSystem@@@@@Z
_TEXT	SEGMENT PARA USE32 PUBLIC 'CODE'
_TEXT	ENDS
;	COMDAT ??0?$ConcreteModuleTemplate@V?$DefaultModuleTag@$00@FXParticleSystem@@@FXParticleSystem@@QAE@ABV01@@Z
_TEXT	SEGMENT PARA USE32 PUBLIC 'CODE'
_TEXT	ENDS
;	COMDAT ??0?$ConcreteModuleTemplate@V?$DefaultModuleTag@$00@FXParticleSystem@@@FXParticleSystem@@QAE@XZ
_TEXT	SEGMENT PARA USE32 PUBLIC 'CODE'
_TEXT	ENDS
;	COMDAT ??1?$ConcreteModuleTemplate@V?$DefaultModuleTag@$00@FXParticleSystem@@@FXParticleSystem@@QAE@XZ
_TEXT	SEGMENT PARA USE32 PUBLIC 'CODE'
_TEXT	ENDS
;	COMDAT ??4?$ConcreteModuleTemplate@V?$DefaultModuleTag@$00@FXParticleSystem@@@FXParticleSystem@@QAEAAV01@ABV01@@Z
_TEXT	SEGMENT PARA USE32 PUBLIC 'CODE'
_TEXT	ENDS
;	COMDAT ?createModule@?$ConcreteModuleTemplate@V?$DefaultModuleTag@$00@FXParticleSystem@@@FXParticleSystem@@QAEPAV?$DefaultModule@$00@2@AAV?$TrackingPtr@VParticleSystem@FXParticleSystem@@@@@Z
_TEXT	SEGMENT PARA USE32 PUBLIC 'CODE'
_TEXT	ENDS
;	COMDAT ??0?$ConcreteModuleTemplate@V?$DefaultModuleTag@$01@FXParticleSystem@@@FXParticleSystem@@QAE@ABV01@@Z
_TEXT	SEGMENT PARA USE32 PUBLIC 'CODE'
_TEXT	ENDS
;	COMDAT ??0?$ConcreteModuleTemplate@V?$DefaultModuleTag@$01@FXParticleSystem@@@FXParticleSystem@@QAE@XZ
_TEXT	SEGMENT PARA USE32 PUBLIC 'CODE'
_TEXT	ENDS
;	COMDAT ??1?$ConcreteModuleTemplate@V?$DefaultModuleTag@$01@FXParticleSystem@@@FXParticleSystem@@QAE@XZ
_TEXT	SEGMENT PARA USE32 PUBLIC 'CODE'
_TEXT	ENDS
;	COMDAT ??4?$ConcreteModuleTemplate@V?$DefaultModuleTag@$01@FXParticleSystem@@@FXParticleSystem@@QAEAAV01@ABV01@@Z
_TEXT	SEGMENT PARA USE32 PUBLIC 'CODE'
_TEXT	ENDS
;	COMDAT ?createModule@?$ConcreteModuleTemplate@V?$DefaultModuleTag@$01@FXParticleSystem@@@FXParticleSystem@@QAEPAV?$DefaultModule@$01@2@AAV?$TrackingPtr@VParticleSystem@FXParticleSystem@@@@@Z
_TEXT	SEGMENT PARA USE32 PUBLIC 'CODE'
_TEXT	ENDS
;	COMDAT ??0?$ConcreteModuleTemplate@V?$DefaultModuleTag@$02@FXParticleSystem@@@FXParticleSystem@@QAE@ABV01@@Z
_TEXT	SEGMENT PARA USE32 PUBLIC 'CODE'
_TEXT	ENDS
;	COMDAT ??0?$ConcreteModuleTemplate@V?$DefaultModuleTag@$02@FXParticleSystem@@@FXParticleSystem@@QAE@XZ
_TEXT	SEGMENT PARA USE32 PUBLIC 'CODE'
_TEXT	ENDS
;	COMDAT ??1?$ConcreteModuleTemplate@V?$DefaultModuleTag@$02@FXParticleSystem@@@FXParticleSystem@@QAE@XZ
_TEXT	SEGMENT PARA USE32 PUBLIC 'CODE'
_TEXT	ENDS
;	COMDAT ??4?$ConcreteModuleTemplate@V?$DefaultModuleTag@$02@FXParticleSystem@@@FXParticleSystem@@QAEAAV01@ABV01@@Z
_TEXT	SEGMENT PARA USE32 PUBLIC 'CODE'
_TEXT	ENDS
;	COMDAT ?createModule@?$ConcreteModuleTemplate@V?$DefaultModuleTag@$02@FXParticleSystem@@@FXParticleSystem@@QAEPAV?$DefaultModule@$02@2@AAV?$TrackingPtr@VParticleSystem@FXParticleSystem@@@@@Z
_TEXT	SEGMENT PARA USE32 PUBLIC 'CODE'
_TEXT	ENDS
;	COMDAT ??0?$ConcreteModuleTemplate@V?$DefaultModuleTag@$05@FXParticleSystem@@@FXParticleSystem@@QAE@ABV01@@Z
_TEXT	SEGMENT PARA USE32 PUBLIC 'CODE'
_TEXT	ENDS
;	COMDAT ??0?$ConcreteModuleTemplate@V?$DefaultModuleTag@$05@FXParticleSystem@@@FXParticleSystem@@QAE@XZ
_TEXT	SEGMENT PARA USE32 PUBLIC 'CODE'
_TEXT	ENDS
;	COMDAT ??1?$ConcreteModuleTemplate@V?$DefaultModuleTag@$05@FXParticleSystem@@@FXParticleSystem@@QAE@XZ
_TEXT	SEGMENT PARA USE32 PUBLIC 'CODE'
_TEXT	ENDS
;	COMDAT ??4?$ConcreteModuleTemplate@V?$DefaultModuleTag@$05@FXParticleSystem@@@FXParticleSystem@@QAEAAV01@ABV01@@Z
_TEXT	SEGMENT PARA USE32 PUBLIC 'CODE'
_TEXT	ENDS
;	COMDAT ?createModule@?$ConcreteModuleTemplate@V?$DefaultModuleTag@$05@FXParticleSystem@@@FXParticleSystem@@QAEPAV?$DefaultModule@$05@2@AAV?$TrackingPtr@VParticleSystem@FXParticleSystem@@@@@Z
_TEXT	SEGMENT PARA USE32 PUBLIC 'CODE'
_TEXT	ENDS
;	COMDAT ??0?$ConcreteModuleTemplate@V?$DefaultModuleTag@$06@FXParticleSystem@@@FXParticleSystem@@QAE@ABV01@@Z
_TEXT	SEGMENT PARA USE32 PUBLIC 'CODE'
_TEXT	ENDS
;	COMDAT ??0?$ConcreteModuleTemplate@V?$DefaultModuleTag@$06@FXParticleSystem@@@FXParticleSystem@@QAE@XZ
_TEXT	SEGMENT PARA USE32 PUBLIC 'CODE'
_TEXT	ENDS
;	COMDAT ??1?$ConcreteModuleTemplate@V?$DefaultModuleTag@$06@FXParticleSystem@@@FXParticleSystem@@QAE@XZ
_TEXT	SEGMENT PARA USE32 PUBLIC 'CODE'
_TEXT	ENDS
;	COMDAT ??4?$ConcreteModuleTemplate@V?$DefaultModuleTag@$06@FXParticleSystem@@@FXParticleSystem@@QAEAAV01@ABV01@@Z
_TEXT	SEGMENT PARA USE32 PUBLIC 'CODE'
_TEXT	ENDS
;	COMDAT ?createModule@?$ConcreteModuleTemplate@V?$DefaultModuleTag@$06@FXParticleSystem@@@FXParticleSystem@@QAEPAV?$DefaultModule@$06@2@AAV?$TrackingPtr@VParticleSystem@FXParticleSystem@@@@@Z
_TEXT	SEGMENT PARA USE32 PUBLIC 'CODE'
_TEXT	ENDS
;	COMDAT ??0?$ConcreteModuleTemplate@V?$ModuleTag@$01$E?RENDEROBJECT_UPDATE_MODULE_KEY@FXParticleSystem@@3QBDB$E?RENDEROBJECT_UPDATE_MODULE_NAME@2@3QBDBVRenderObjectUpdateModule@2@VRenderObjectUpdateModuleTemplate@2@VRenderObjectParticleUpdateModule@2@VRenderObjectParticleUpdateModuleTemplate@2@@FXParticleSystem@@@FXParticleSystem@@QAE@ABV01@@Z
_TEXT	SEGMENT PARA USE32 PUBLIC 'CODE'
_TEXT	ENDS
;	COMDAT ??0?$ConcreteModuleTemplate@V?$ModuleTag@$01$E?RENDEROBJECT_UPDATE_MODULE_KEY@FXParticleSystem@@3QBDB$E?RENDEROBJECT_UPDATE_MODULE_NAME@2@3QBDBVRenderObjectUpdateModule@2@VRenderObjectUpdateModuleTemplate@2@VRenderObjectParticleUpdateModule@2@VRenderObjectParticleUpdateModuleTemplate@2@@FXParticleSystem@@@FXParticleSystem@@QAE@XZ
_TEXT	SEGMENT PARA USE32 PUBLIC 'CODE'
_TEXT	ENDS
;	COMDAT ??1?$ConcreteModuleTemplate@V?$ModuleTag@$01$E?RENDEROBJECT_UPDATE_MODULE_KEY@FXParticleSystem@@3QBDB$E?RENDEROBJECT_UPDATE_MODULE_NAME@2@3QBDBVRenderObjectUpdateModule@2@VRenderObjectUpdateModuleTemplate@2@VRenderObjectParticleUpdateModule@2@VRenderObjectParticleUpdateModuleTemplate@2@@FXParticleSystem@@@FXParticleSystem@@QAE@XZ
_TEXT	SEGMENT PARA USE32 PUBLIC 'CODE'
_TEXT	ENDS
;	COMDAT ??4?$ConcreteModuleTemplate@V?$ModuleTag@$01$E?RENDEROBJECT_UPDATE_MODULE_KEY@FXParticleSystem@@3QBDB$E?RENDEROBJECT_UPDATE_MODULE_NAME@2@3QBDBVRenderObjectUpdateModule@2@VRenderObjectUpdateModuleTemplate@2@VRenderObjectParticleUpdateModule@2@VRenderObjectParticleUpdateModuleTemplate@2@@FXParticleSystem@@@FXParticleSystem@@QAEAAV01@ABV01@@Z
_TEXT	SEGMENT PARA USE32 PUBLIC 'CODE'
_TEXT	ENDS
;	COMDAT ?clone@?$ConcreteModuleTemplate@V?$ModuleTag@$01$E?RENDEROBJECT_UPDATE_MODULE_KEY@FXParticleSystem@@3QBDB$E?RENDEROBJECT_UPDATE_MODULE_NAME@2@3QBDBVRenderObjectUpdateModule@2@VRenderObjectUpdateModuleTemplate@2@VRenderObjectParticleUpdateModule@2@VRenderObjectParticleUpdateModuleTemplate@2@@FXParticleSystem@@@FXParticleSystem@@QBEPAVRenderObjectUpdateModuleTemplate@2@XZ
_TEXT	SEGMENT PARA USE32 PUBLIC 'CODE'
_TEXT	ENDS
;	COMDAT ?createModule@?$ConcreteModuleTemplate@V?$ModuleTag@$01$E?RENDEROBJECT_UPDATE_MODULE_KEY@FXParticleSystem@@3QBDB$E?RENDEROBJECT_UPDATE_MODULE_NAME@2@3QBDBVRenderObjectUpdateModule@2@VRenderObjectUpdateModuleTemplate@2@VRenderObjectParticleUpdateModule@2@VRenderObjectParticleUpdateModuleTemplate@2@@FXParticleSystem@@@FXParticleSystem@@QAEPAVRenderObjectUpdateModule@2@AAV?$TrackingPtr@VParticleSystem@FXParticleSystem@@@@@Z
_TEXT	SEGMENT PARA USE32 PUBLIC 'CODE'
_TEXT	ENDS
;	COMDAT ??0?$ConcreteModuleTemplate@V?$ModuleTag@$03$E?CYLINDRICAL_EMISSION_VELOCITY_MODULE_KEY@FXParticleSystem@@3QBDB$E?CYLINDRICAL_EMISSION_VELOCITY_MODULE_NAME@2@3QBDBVCylindricalEmissionVelocityModule@2@VCylindricalEmissionVelocityModuleTemplate@2@V?$DefaultParticleModule@$03@2@V?$DefaultParticleModuleTemplate@$03@2@@FXParticleSystem@@@FXParticleSystem@@QAE@ABV01@@Z
_TEXT	SEGMENT PARA USE32 PUBLIC 'CODE'
_TEXT	ENDS
;	COMDAT ??0?$ConcreteModuleTemplate@V?$ModuleTag@$03$E?CYLINDRICAL_EMISSION_VELOCITY_MODULE_KEY@FXParticleSystem@@3QBDB$E?CYLINDRICAL_EMISSION_VELOCITY_MODULE_NAME@2@3QBDBVCylindricalEmissionVelocityModule@2@VCylindricalEmissionVelocityModuleTemplate@2@V?$DefaultParticleModule@$03@2@V?$DefaultParticleModuleTemplate@$03@2@@FXParticleSystem@@@FXParticleSystem@@QAE@XZ
_TEXT	SEGMENT PARA USE32 PUBLIC 'CODE'
_TEXT	ENDS
;	COMDAT ??1?$ConcreteModuleTemplate@V?$ModuleTag@$03$E?CYLINDRICAL_EMISSION_VELOCITY_MODULE_KEY@FXParticleSystem@@3QBDB$E?CYLINDRICAL_EMISSION_VELOCITY_MODULE_NAME@2@3QBDBVCylindricalEmissionVelocityModule@2@VCylindricalEmissionVelocityModuleTemplate@2@V?$DefaultParticleModule@$03@2@V?$DefaultParticleModuleTemplate@$03@2@@FXParticleSystem@@@FXParticleSystem@@QAE@XZ
_TEXT	SEGMENT PARA USE32 PUBLIC 'CODE'
_TEXT	ENDS
;	COMDAT ??4?$ConcreteModuleTemplate@V?$ModuleTag@$03$E?CYLINDRICAL_EMISSION_VELOCITY_MODULE_KEY@FXParticleSystem@@3QBDB$E?CYLINDRICAL_EMISSION_VELOCITY_MODULE_NAME@2@3QBDBVCylindricalEmissionVelocityModule@2@VCylindricalEmissionVelocityModuleTemplate@2@V?$DefaultParticleModule@$03@2@V?$DefaultParticleModuleTemplate@$03@2@@FXParticleSystem@@@FXParticleSystem@@QAEAAV01@ABV01@@Z
_TEXT	SEGMENT PARA USE32 PUBLIC 'CODE'
_TEXT	ENDS
;	COMDAT ?clone@?$ConcreteModuleTemplate@V?$ModuleTag@$03$E?CYLINDRICAL_EMISSION_VELOCITY_MODULE_KEY@FXParticleSystem@@3QBDB$E?CYLINDRICAL_EMISSION_VELOCITY_MODULE_NAME@2@3QBDBVCylindricalEmissionVelocityModule@2@VCylindricalEmissionVelocityModuleTemplate@2@V?$DefaultParticleModule@$03@2@V?$DefaultParticleModuleTemplate@$03@2@@FXParticleSystem@@@FXParticleSystem@@QBEPAVCylindricalEmissionVelocityModuleTemplate@2@XZ
_TEXT	SEGMENT PARA USE32 PUBLIC 'CODE'
_TEXT	ENDS
;	COMDAT ?createModule@?$ConcreteModuleTemplate@V?$ModuleTag@$03$E?CYLINDRICAL_EMISSION_VELOCITY_MODULE_KEY@FXParticleSystem@@3QBDB$E?CYLINDRICAL_EMISSION_VELOCITY_MODULE_NAME@2@3QBDBVCylindricalEmissionVelocityModule@2@VCylindricalEmissionVelocityModuleTemplate@2@V?$DefaultParticleModule@$03@2@V?$DefaultParticleModuleTemplate@$03@2@@FXParticleSystem@@@FXParticleSystem@@QAEPAVCylindricalEmissionVelocityModule@2@AAV?$TrackingPtr@VParticleSystem@FXParticleSystem@@@@@Z
_TEXT	SEGMENT PARA USE32 PUBLIC 'CODE'
_TEXT	ENDS
;	COMDAT ??0?$ConcreteModuleTemplate@V?$ModuleTag@$03$E?HEMISPHERICAL_EMISSION_VELOCITY_MODULE_KEY@FXParticleSystem@@3QBDB$E?HEMISPHERICAL_EMISSION_VELOCITY_MODULE_NAME@2@3QBDBVHemisphericalEmissionVelocityModule@2@VHemisphericalEmissionVelocityModuleTemplate@2@V?$DefaultParticleModule@$03@2@V?$DefaultParticleModuleTemplate@$03@2@@FXParticleSystem@@@FXParticleSystem@@QAE@ABV01@@Z
_TEXT	SEGMENT PARA USE32 PUBLIC 'CODE'
_TEXT	ENDS
;	COMDAT ??0?$ConcreteModuleTemplate@V?$ModuleTag@$03$E?HEMISPHERICAL_EMISSION_VELOCITY_MODULE_KEY@FXParticleSystem@@3QBDB$E?HEMISPHERICAL_EMISSION_VELOCITY_MODULE_NAME@2@3QBDBVHemisphericalEmissionVelocityModule@2@VHemisphericalEmissionVelocityModuleTemplate@2@V?$DefaultParticleModule@$03@2@V?$DefaultParticleModuleTemplate@$03@2@@FXParticleSystem@@@FXParticleSystem@@QAE@XZ
_TEXT	SEGMENT PARA USE32 PUBLIC 'CODE'
_TEXT	ENDS
;	COMDAT ??1?$ConcreteModuleTemplate@V?$ModuleTag@$03$E?HEMISPHERICAL_EMISSION_VELOCITY_MODULE_KEY@FXParticleSystem@@3QBDB$E?HEMISPHERICAL_EMISSION_VELOCITY_MODULE_NAME@2@3QBDBVHemisphericalEmissionVelocityModule@2@VHemisphericalEmissionVelocityModuleTemplate@2@V?$DefaultParticleModule@$03@2@V?$DefaultParticleModuleTemplate@$03@2@@FXParticleSystem@@@FXParticleSystem@@QAE@XZ
_TEXT	SEGMENT PARA USE32 PUBLIC 'CODE'
_TEXT	ENDS
;	COMDAT ??4?$ConcreteModuleTemplate@V?$ModuleTag@$03$E?HEMISPHERICAL_EMISSION_VELOCITY_MODULE_KEY@FXParticleSystem@@3QBDB$E?HEMISPHERICAL_EMISSION_VELOCITY_MODULE_NAME@2@3QBDBVHemisphericalEmissionVelocityModule@2@VHemisphericalEmissionVelocityModuleTemplate@2@V?$DefaultParticleModule@$03@2@V?$DefaultParticleModuleTemplate@$03@2@@FXParticleSystem@@@FXParticleSystem@@QAEAAV01@ABV01@@Z
_TEXT	SEGMENT PARA USE32 PUBLIC 'CODE'
_TEXT	ENDS
;	COMDAT ?clone@?$ConcreteModuleTemplate@V?$ModuleTag@$03$E?HEMISPHERICAL_EMISSION_VELOCITY_MODULE_KEY@FXParticleSystem@@3QBDB$E?HEMISPHERICAL_EMISSION_VELOCITY_MODULE_NAME@2@3QBDBVHemisphericalEmissionVelocityModule@2@VHemisphericalEmissionVelocityModuleTemplate@2@V?$DefaultParticleModule@$03@2@V?$DefaultParticleModuleTemplate@$03@2@@FXParticleSystem@@@FXParticleSystem@@QBEPAVHemisphericalEmissionVelocityModuleTemplate@2@XZ
_TEXT	SEGMENT PARA USE32 PUBLIC 'CODE'
_TEXT	ENDS
;	COMDAT ?createModule@?$ConcreteModuleTemplate@V?$ModuleTag@$03$E?HEMISPHERICAL_EMISSION_VELOCITY_MODULE_KEY@FXParticleSystem@@3QBDB$E?HEMISPHERICAL_EMISSION_VELOCITY_MODULE_NAME@2@3QBDBVHemisphericalEmissionVelocityModule@2@VHemisphericalEmissionVelocityModuleTemplate@2@V?$DefaultParticleModule@$03@2@V?$DefaultParticleModuleTemplate@$03@2@@FXParticleSystem@@@FXParticleSystem@@QAEPAVHemisphericalEmissionVelocityModule@2@AAV?$TrackingPtr@VParticleSystem@FXParticleSystem@@@@@Z
_TEXT	SEGMENT PARA USE32 PUBLIC 'CODE'
_TEXT	ENDS
;	COMDAT ??0?$ConcreteModuleTemplate@V?$ModuleTag@$03$E?OUTWARD_EMISSION_VELOCITY_MODULE_KEY@FXParticleSystem@@3QBDB$E?OUTWARD_EMISSION_VELOCITY_MODULE_NAME@2@3QBDBVOutwardEmissionVelocityModule@2@VOutwardEmissionVelocityModuleTemplate@2@V?$DefaultParticleModule@$03@2@V?$DefaultParticleModuleTemplate@$03@2@@FXParticleSystem@@@FXParticleSystem@@QAE@ABV01@@Z
_TEXT	SEGMENT PARA USE32 PUBLIC 'CODE'
_TEXT	ENDS
;	COMDAT ??0?$ConcreteModuleTemplate@V?$ModuleTag@$03$E?OUTWARD_EMISSION_VELOCITY_MODULE_KEY@FXParticleSystem@@3QBDB$E?OUTWARD_EMISSION_VELOCITY_MODULE_NAME@2@3QBDBVOutwardEmissionVelocityModule@2@VOutwardEmissionVelocityModuleTemplate@2@V?$DefaultParticleModule@$03@2@V?$DefaultParticleModuleTemplate@$03@2@@FXParticleSystem@@@FXParticleSystem@@QAE@XZ
_TEXT	SEGMENT PARA USE32 PUBLIC 'CODE'
_TEXT	ENDS
;	COMDAT ??1?$ConcreteModuleTemplate@V?$ModuleTag@$03$E?OUTWARD_EMISSION_VELOCITY_MODULE_KEY@FXParticleSystem@@3QBDB$E?OUTWARD_EMISSION_VELOCITY_MODULE_NAME@2@3QBDBVOutwardEmissionVelocityModule@2@VOutwardEmissionVelocityModuleTemplate@2@V?$DefaultParticleModule@$03@2@V?$DefaultParticleModuleTemplate@$03@2@@FXParticleSystem@@@FXParticleSystem@@QAE@XZ
_TEXT	SEGMENT PARA USE32 PUBLIC 'CODE'
_TEXT	ENDS
;	COMDAT ??4?$ConcreteModuleTemplate@V?$ModuleTag@$03$E?OUTWARD_EMISSION_VELOCITY_MODULE_KEY@FXParticleSystem@@3QBDB$E?OUTWARD_EMISSION_VELOCITY_MODULE_NAME@2@3QBDBVOutwardEmissionVelocityModule@2@VOutwardEmissionVelocityModuleTemplate@2@V?$DefaultParticleModule@$03@2@V?$DefaultParticleModuleTemplate@$03@2@@FXParticleSystem@@@FXParticleSystem@@QAEAAV01@ABV01@@Z
_TEXT	SEGMENT PARA USE32 PUBLIC 'CODE'
_TEXT	ENDS
;	COMDAT ?clone@?$ConcreteModuleTemplate@V?$ModuleTag@$03$E?OUTWARD_EMISSION_VELOCITY_MODULE_KEY@FXParticleSystem@@3QBDB$E?OUTWARD_EMISSION_VELOCITY_MODULE_NAME@2@3QBDBVOutwardEmissionVelocityModule@2@VOutwardEmissionVelocityModuleTemplate@2@V?$DefaultParticleModule@$03@2@V?$DefaultParticleModuleTemplate@$03@2@@FXParticleSystem@@@FXParticleSystem@@QBEPAVOutwardEmissionVelocityModuleTemplate@2@XZ
_TEXT	SEGMENT PARA USE32 PUBLIC 'CODE'
_TEXT	ENDS
;	COMDAT ?createModule@?$ConcreteModuleTemplate@V?$ModuleTag@$03$E?OUTWARD_EMISSION_VELOCITY_MODULE_KEY@FXParticleSystem@@3QBDB$E?OUTWARD_EMISSION_VELOCITY_MODULE_NAME@2@3QBDBVOutwardEmissionVelocityModule@2@VOutwardEmissionVelocityModuleTemplate@2@V?$DefaultParticleModule@$03@2@V?$DefaultParticleModuleTemplate@$03@2@@FXParticleSystem@@@FXParticleSystem@@QAEPAVOutwardEmissionVelocityModule@2@AAV?$TrackingPtr@VParticleSystem@FXParticleSystem@@@@@Z
_TEXT	SEGMENT PARA USE32 PUBLIC 'CODE'
_TEXT	ENDS
;	COMDAT ??0?$ConcreteModuleTemplate@V?$ModuleTag@$03$E?SPHERICAL_EMISSION_VELOCITY_MODULE_KEY@FXParticleSystem@@3QBDB$E?SPHERICAL_EMISSION_VELOCITY_MODULE_NAME@2@3QBDBVSphericalEmissionVelocityModule@2@VSphericalEmissionVelocityModuleTemplate@2@V?$DefaultParticleModule@$03@2@V?$DefaultParticleModuleTemplate@$03@2@@FXParticleSystem@@@FXParticleSystem@@QAE@ABV01@@Z
_TEXT	SEGMENT PARA USE32 PUBLIC 'CODE'
_TEXT	ENDS
;	COMDAT ??0?$ConcreteModuleTemplate@V?$ModuleTag@$03$E?SPHERICAL_EMISSION_VELOCITY_MODULE_KEY@FXParticleSystem@@3QBDB$E?SPHERICAL_EMISSION_VELOCITY_MODULE_NAME@2@3QBDBVSphericalEmissionVelocityModule@2@VSphericalEmissionVelocityModuleTemplate@2@V?$DefaultParticleModule@$03@2@V?$DefaultParticleModuleTemplate@$03@2@@FXParticleSystem@@@FXParticleSystem@@QAE@XZ
_TEXT	SEGMENT PARA USE32 PUBLIC 'CODE'
_TEXT	ENDS
;	COMDAT ??1?$ConcreteModuleTemplate@V?$ModuleTag@$03$E?SPHERICAL_EMISSION_VELOCITY_MODULE_KEY@FXParticleSystem@@3QBDB$E?SPHERICAL_EMISSION_VELOCITY_MODULE_NAME@2@3QBDBVSphericalEmissionVelocityModule@2@VSphericalEmissionVelocityModuleTemplate@2@V?$DefaultParticleModule@$03@2@V?$DefaultParticleModuleTemplate@$03@2@@FXParticleSystem@@@FXParticleSystem@@QAE@XZ
_TEXT	SEGMENT PARA USE32 PUBLIC 'CODE'
_TEXT	ENDS
;	COMDAT ??4?$ConcreteModuleTemplate@V?$ModuleTag@$03$E?SPHERICAL_EMISSION_VELOCITY_MODULE_KEY@FXParticleSystem@@3QBDB$E?SPHERICAL_EMISSION_VELOCITY_MODULE_NAME@2@3QBDBVSphericalEmissionVelocityModule@2@VSphericalEmissionVelocityModuleTemplate@2@V?$DefaultParticleModule@$03@2@V?$DefaultParticleModuleTemplate@$03@2@@FXParticleSystem@@@FXParticleSystem@@QAEAAV01@ABV01@@Z
_TEXT	SEGMENT PARA USE32 PUBLIC 'CODE'
_TEXT	ENDS
;	COMDAT ?clone@?$ConcreteModuleTemplate@V?$ModuleTag@$03$E?SPHERICAL_EMISSION_VELOCITY_MODULE_KEY@FXParticleSystem@@3QBDB$E?SPHERICAL_EMISSION_VELOCITY_MODULE_NAME@2@3QBDBVSphericalEmissionVelocityModule@2@VSphericalEmissionVelocityModuleTemplate@2@V?$DefaultParticleModule@$03@2@V?$DefaultParticleModuleTemplate@$03@2@@FXParticleSystem@@@FXParticleSystem@@QBEPAVSphericalEmissionVelocityModuleTemplate@2@XZ
_TEXT	SEGMENT PARA USE32 PUBLIC 'CODE'
_TEXT	ENDS
;	COMDAT ?createModule@?$ConcreteModuleTemplate@V?$ModuleTag@$03$E?SPHERICAL_EMISSION_VELOCITY_MODULE_KEY@FXParticleSystem@@3QBDB$E?SPHERICAL_EMISSION_VELOCITY_MODULE_NAME@2@3QBDBVSphericalEmissionVelocityModule@2@VSphericalEmissionVelocityModuleTemplate@2@V?$DefaultParticleModule@$03@2@V?$DefaultParticleModuleTemplate@$03@2@@FXParticleSystem@@@FXParticleSystem@@QAEPAVSphericalEmissionVelocityModule@2@AAV?$TrackingPtr@VParticleSystem@FXParticleSystem@@@@@Z
_TEXT	SEGMENT PARA USE32 PUBLIC 'CODE'
_TEXT	ENDS
;	COMDAT ??0?$ConcreteModuleTemplate@V?$ModuleTag@$04$E?BOX_EMISSION_VOLUME_MODULE_KEY@FXParticleSystem@@3QBDB$E?BOX_EMISSION_VOLUME_MODULE_NAME@2@3QBDBVBoxEmissionVolumeModule@2@VBoxEmissionVolumeModuleTemplate@2@V?$DefaultParticleModule@$04@2@V?$DefaultParticleModuleTemplate@$04@2@@FXParticleSystem@@@FXParticleSystem@@QAE@ABV01@@Z
_TEXT	SEGMENT PARA USE32 PUBLIC 'CODE'
_TEXT	ENDS
;	COMDAT ??0?$ConcreteModuleTemplate@V?$ModuleTag@$04$E?BOX_EMISSION_VOLUME_MODULE_KEY@FXParticleSystem@@3QBDB$E?BOX_EMISSION_VOLUME_MODULE_NAME@2@3QBDBVBoxEmissionVolumeModule@2@VBoxEmissionVolumeModuleTemplate@2@V?$DefaultParticleModule@$04@2@V?$DefaultParticleModuleTemplate@$04@2@@FXParticleSystem@@@FXParticleSystem@@QAE@XZ
_TEXT	SEGMENT PARA USE32 PUBLIC 'CODE'
_TEXT	ENDS
;	COMDAT ??1?$ConcreteModuleTemplate@V?$ModuleTag@$04$E?BOX_EMISSION_VOLUME_MODULE_KEY@FXParticleSystem@@3QBDB$E?BOX_EMISSION_VOLUME_MODULE_NAME@2@3QBDBVBoxEmissionVolumeModule@2@VBoxEmissionVolumeModuleTemplate@2@V?$DefaultParticleModule@$04@2@V?$DefaultParticleModuleTemplate@$04@2@@FXParticleSystem@@@FXParticleSystem@@QAE@XZ
_TEXT	SEGMENT PARA USE32 PUBLIC 'CODE'
_TEXT	ENDS
;	COMDAT ??4?$ConcreteModuleTemplate@V?$ModuleTag@$04$E?BOX_EMISSION_VOLUME_MODULE_KEY@FXParticleSystem@@3QBDB$E?BOX_EMISSION_VOLUME_MODULE_NAME@2@3QBDBVBoxEmissionVolumeModule@2@VBoxEmissionVolumeModuleTemplate@2@V?$DefaultParticleModule@$04@2@V?$DefaultParticleModuleTemplate@$04@2@@FXParticleSystem@@@FXParticleSystem@@QAEAAV01@ABV01@@Z
_TEXT	SEGMENT PARA USE32 PUBLIC 'CODE'
_TEXT	ENDS
;	COMDAT ?clone@?$ConcreteModuleTemplate@V?$ModuleTag@$04$E?BOX_EMISSION_VOLUME_MODULE_KEY@FXParticleSystem@@3QBDB$E?BOX_EMISSION_VOLUME_MODULE_NAME@2@3QBDBVBoxEmissionVolumeModule@2@VBoxEmissionVolumeModuleTemplate@2@V?$DefaultParticleModule@$04@2@V?$DefaultParticleModuleTemplate@$04@2@@FXParticleSystem@@@FXParticleSystem@@QBEPAVBoxEmissionVolumeModuleTemplate@2@XZ
_TEXT	SEGMENT PARA USE32 PUBLIC 'CODE'
_TEXT	ENDS
;	COMDAT ?createModule@?$ConcreteModuleTemplate@V?$ModuleTag@$04$E?BOX_EMISSION_VOLUME_MODULE_KEY@FXParticleSystem@@3QBDB$E?BOX_EMISSION_VOLUME_MODULE_NAME@2@3QBDBVBoxEmissionVolumeModule@2@VBoxEmissionVolumeModuleTemplate@2@V?$DefaultParticleModule@$04@2@V?$DefaultParticleModuleTemplate@$04@2@@FXParticleSystem@@@FXParticleSystem@@QAEPAVBoxEmissionVolumeModule@2@AAV?$TrackingPtr@VParticleSystem@FXParticleSystem@@@@@Z
_TEXT	SEGMENT PARA USE32 PUBLIC 'CODE'
_TEXT	ENDS
;	COMDAT ??0?$ConcreteModuleTemplate@V?$ModuleTag@$04$E?CYLINDER_EMISSION_VOLUME_MODULE_KEY@FXParticleSystem@@3QBDB$E?CYLINDER_EMISSION_VOLUME_MODULE_NAME@2@3QBDBVCylinderEmissionVolumeModule@2@VCylinderEmissionVolumeModuleTemplate@2@V?$DefaultParticleModule@$04@2@V?$DefaultParticleModuleTemplate@$04@2@@FXParticleSystem@@@FXParticleSystem@@QAE@ABV01@@Z
_TEXT	SEGMENT PARA USE32 PUBLIC 'CODE'
_TEXT	ENDS
;	COMDAT ??0?$ConcreteModuleTemplate@V?$ModuleTag@$04$E?CYLINDER_EMISSION_VOLUME_MODULE_KEY@FXParticleSystem@@3QBDB$E?CYLINDER_EMISSION_VOLUME_MODULE_NAME@2@3QBDBVCylinderEmissionVolumeModule@2@VCylinderEmissionVolumeModuleTemplate@2@V?$DefaultParticleModule@$04@2@V?$DefaultParticleModuleTemplate@$04@2@@FXParticleSystem@@@FXParticleSystem@@QAE@XZ
_TEXT	SEGMENT PARA USE32 PUBLIC 'CODE'
_TEXT	ENDS
;	COMDAT ??1?$ConcreteModuleTemplate@V?$ModuleTag@$04$E?CYLINDER_EMISSION_VOLUME_MODULE_KEY@FXParticleSystem@@3QBDB$E?CYLINDER_EMISSION_VOLUME_MODULE_NAME@2@3QBDBVCylinderEmissionVolumeModule@2@VCylinderEmissionVolumeModuleTemplate@2@V?$DefaultParticleModule@$04@2@V?$DefaultParticleModuleTemplate@$04@2@@FXParticleSystem@@@FXParticleSystem@@QAE@XZ
_TEXT	SEGMENT PARA USE32 PUBLIC 'CODE'
_TEXT	ENDS
;	COMDAT ??4?$ConcreteModuleTemplate@V?$ModuleTag@$04$E?CYLINDER_EMISSION_VOLUME_MODULE_KEY@FXParticleSystem@@3QBDB$E?CYLINDER_EMISSION_VOLUME_MODULE_NAME@2@3QBDBVCylinderEmissionVolumeModule@2@VCylinderEmissionVolumeModuleTemplate@2@V?$DefaultParticleModule@$04@2@V?$DefaultParticleModuleTemplate@$04@2@@FXParticleSystem@@@FXParticleSystem@@QAEAAV01@ABV01@@Z
_TEXT	SEGMENT PARA USE32 PUBLIC 'CODE'
_TEXT	ENDS
;	COMDAT ?clone@?$ConcreteModuleTemplate@V?$ModuleTag@$04$E?CYLINDER_EMISSION_VOLUME_MODULE_KEY@FXParticleSystem@@3QBDB$E?CYLINDER_EMISSION_VOLUME_MODULE_NAME@2@3QBDBVCylinderEmissionVolumeModule@2@VCylinderEmissionVolumeModuleTemplate@2@V?$DefaultParticleModule@$04@2@V?$DefaultParticleModuleTemplate@$04@2@@FXParticleSystem@@@FXParticleSystem@@QBEPAVCylinderEmissionVolumeModuleTemplate@2@XZ
_TEXT	SEGMENT PARA USE32 PUBLIC 'CODE'
_TEXT	ENDS
;	COMDAT ?createModule@?$ConcreteModuleTemplate@V?$ModuleTag@$04$E?CYLINDER_EMISSION_VOLUME_MODULE_KEY@FXParticleSystem@@3QBDB$E?CYLINDER_EMISSION_VOLUME_MODULE_NAME@2@3QBDBVCylinderEmissionVolumeModule@2@VCylinderEmissionVolumeModuleTemplate@2@V?$DefaultParticleModule@$04@2@V?$DefaultParticleModuleTemplate@$04@2@@FXParticleSystem@@@FXParticleSystem@@QAEPAVCylinderEmissionVolumeModule@2@AAV?$TrackingPtr@VParticleSystem@FXParticleSystem@@@@@Z
_TEXT	SEGMENT PARA USE32 PUBLIC 'CODE'
_TEXT	ENDS
;	COMDAT ??0?$ConcreteModuleTemplate@V?$ModuleTag@$04$E?LIGHTNING_EMISSION_MODULE_KEY@FXParticleSystem@@3QBDB$E?LIGHTNING_EMISSION_MODULE_NAME@2@3QBDBVLightningEmissionModule@2@VLightningEmissionModuleTemplate@2@V?$DefaultParticleModule@$04@2@V?$DefaultParticleModuleTemplate@$04@2@@FXParticleSystem@@@FXParticleSystem@@QAE@ABV01@@Z
_TEXT	SEGMENT PARA USE32 PUBLIC 'CODE'
_TEXT	ENDS
;	COMDAT ??0?$ConcreteModuleTemplate@V?$ModuleTag@$04$E?LIGHTNING_EMISSION_MODULE_KEY@FXParticleSystem@@3QBDB$E?LIGHTNING_EMISSION_MODULE_NAME@2@3QBDBVLightningEmissionModule@2@VLightningEmissionModuleTemplate@2@V?$DefaultParticleModule@$04@2@V?$DefaultParticleModuleTemplate@$04@2@@FXParticleSystem@@@FXParticleSystem@@QAE@XZ
_TEXT	SEGMENT PARA USE32 PUBLIC 'CODE'
_TEXT	ENDS
;	COMDAT ??1?$ConcreteModuleTemplate@V?$ModuleTag@$04$E?LIGHTNING_EMISSION_MODULE_KEY@FXParticleSystem@@3QBDB$E?LIGHTNING_EMISSION_MODULE_NAME@2@3QBDBVLightningEmissionModule@2@VLightningEmissionModuleTemplate@2@V?$DefaultParticleModule@$04@2@V?$DefaultParticleModuleTemplate@$04@2@@FXParticleSystem@@@FXParticleSystem@@QAE@XZ
_TEXT	SEGMENT PARA USE32 PUBLIC 'CODE'
_TEXT	ENDS
;	COMDAT ??4?$ConcreteModuleTemplate@V?$ModuleTag@$04$E?LIGHTNING_EMISSION_MODULE_KEY@FXParticleSystem@@3QBDB$E?LIGHTNING_EMISSION_MODULE_NAME@2@3QBDBVLightningEmissionModule@2@VLightningEmissionModuleTemplate@2@V?$DefaultParticleModule@$04@2@V?$DefaultParticleModuleTemplate@$04@2@@FXParticleSystem@@@FXParticleSystem@@QAEAAV01@ABV01@@Z
_TEXT	SEGMENT PARA USE32 PUBLIC 'CODE'
_TEXT	ENDS
;	COMDAT ?clone@?$ConcreteModuleTemplate@V?$ModuleTag@$04$E?LIGHTNING_EMISSION_MODULE_KEY@FXParticleSystem@@3QBDB$E?LIGHTNING_EMISSION_MODULE_NAME@2@3QBDBVLightningEmissionModule@2@VLightningEmissionModuleTemplate@2@V?$DefaultParticleModule@$04@2@V?$DefaultParticleModuleTemplate@$04@2@@FXParticleSystem@@@FXParticleSystem@@QBEPAVLightningEmissionModuleTemplate@2@XZ
_TEXT	SEGMENT PARA USE32 PUBLIC 'CODE'
_TEXT	ENDS
;	COMDAT ?createModule@?$ConcreteModuleTemplate@V?$ModuleTag@$04$E?LIGHTNING_EMISSION_MODULE_KEY@FXParticleSystem@@3QBDB$E?LIGHTNING_EMISSION_MODULE_NAME@2@3QBDBVLightningEmissionModule@2@VLightningEmissionModuleTemplate@2@V?$DefaultParticleModule@$04@2@V?$DefaultParticleModuleTemplate@$04@2@@FXParticleSystem@@@FXParticleSystem@@QAEPAVLightningEmissionModule@2@AAV?$TrackingPtr@VParticleSystem@FXParticleSystem@@@@@Z
_TEXT	SEGMENT PARA USE32 PUBLIC 'CODE'
_TEXT	ENDS
;	COMDAT ??0?$ConcreteModuleTemplate@V?$ModuleTag@$04$E?LINE_EMISSION_VOLUME_MODULE_KEY@FXParticleSystem@@3QBDB$E?LINE_EMISSION_VOLUME_MODULE_NAME@2@3QBDBVLineEmissionVolumeModule@2@VLineEmissionVolumeModuleTemplate@2@V?$DefaultParticleModule@$04@2@V?$DefaultParticleModuleTemplate@$04@2@@FXParticleSystem@@@FXParticleSystem@@QAE@ABV01@@Z
_TEXT	SEGMENT PARA USE32 PUBLIC 'CODE'
_TEXT	ENDS
;	COMDAT ??0?$ConcreteModuleTemplate@V?$ModuleTag@$04$E?LINE_EMISSION_VOLUME_MODULE_KEY@FXParticleSystem@@3QBDB$E?LINE_EMISSION_VOLUME_MODULE_NAME@2@3QBDBVLineEmissionVolumeModule@2@VLineEmissionVolumeModuleTemplate@2@V?$DefaultParticleModule@$04@2@V?$DefaultParticleModuleTemplate@$04@2@@FXParticleSystem@@@FXParticleSystem@@QAE@XZ
_TEXT	SEGMENT PARA USE32 PUBLIC 'CODE'
_TEXT	ENDS
;	COMDAT ??1?$ConcreteModuleTemplate@V?$ModuleTag@$04$E?LINE_EMISSION_VOLUME_MODULE_KEY@FXParticleSystem@@3QBDB$E?LINE_EMISSION_VOLUME_MODULE_NAME@2@3QBDBVLineEmissionVolumeModule@2@VLineEmissionVolumeModuleTemplate@2@V?$DefaultParticleModule@$04@2@V?$DefaultParticleModuleTemplate@$04@2@@FXParticleSystem@@@FXParticleSystem@@QAE@XZ
_TEXT	SEGMENT PARA USE32 PUBLIC 'CODE'
_TEXT	ENDS
;	COMDAT ??4?$ConcreteModuleTemplate@V?$ModuleTag@$04$E?LINE_EMISSION_VOLUME_MODULE_KEY@FXParticleSystem@@3QBDB$E?LINE_EMISSION_VOLUME_MODULE_NAME@2@3QBDBVLineEmissionVolumeModule@2@VLineEmissionVolumeModuleTemplate@2@V?$DefaultParticleModule@$04@2@V?$DefaultParticleModuleTemplate@$04@2@@FXParticleSystem@@@FXParticleSystem@@QAEAAV01@ABV01@@Z
_TEXT	SEGMENT PARA USE32 PUBLIC 'CODE'
_TEXT	ENDS
;	COMDAT ?clone@?$ConcreteModuleTemplate@V?$ModuleTag@$04$E?LINE_EMISSION_VOLUME_MODULE_KEY@FXParticleSystem@@3QBDB$E?LINE_EMISSION_VOLUME_MODULE_NAME@2@3QBDBVLineEmissionVolumeModule@2@VLineEmissionVolumeModuleTemplate@2@V?$DefaultParticleModule@$04@2@V?$DefaultParticleModuleTemplate@$04@2@@FXParticleSystem@@@FXParticleSystem@@QBEPAVLineEmissionVolumeModuleTemplate@2@XZ
_TEXT	SEGMENT PARA USE32 PUBLIC 'CODE'
_TEXT	ENDS
;	COMDAT ?createModule@?$ConcreteModuleTemplate@V?$ModuleTag@$04$E?LINE_EMISSION_VOLUME_MODULE_KEY@FXParticleSystem@@3QBDB$E?LINE_EMISSION_VOLUME_MODULE_NAME@2@3QBDBVLineEmissionVolumeModule@2@VLineEmissionVolumeModuleTemplate@2@V?$DefaultParticleModule@$04@2@V?$DefaultParticleModuleTemplate@$04@2@@FXParticleSystem@@@FXParticleSystem@@QAEPAVLineEmissionVolumeModule@2@AAV?$TrackingPtr@VParticleSystem@FXParticleSystem@@@@@Z
_TEXT	SEGMENT PARA USE32 PUBLIC 'CODE'
_TEXT	ENDS
;	COMDAT ??0?$ConcreteModuleTemplate@V?$ModuleTag@$04$E?SPHERE_EMISSION_VOLUME_MODULE_KEY@FXParticleSystem@@3QBDB$E?SPHERE_EMISSION_VOLUME_MODULE_NAME@2@3QBDBVSphereEmissionVolumeModule@2@VSphereEmissionVolumeModuleTemplate@2@V?$DefaultParticleModule@$04@2@V?$DefaultParticleModuleTemplate@$04@2@@FXParticleSystem@@@FXParticleSystem@@QAE@ABV01@@Z
_TEXT	SEGMENT PARA USE32 PUBLIC 'CODE'
_TEXT	ENDS
;	COMDAT ??0?$ConcreteModuleTemplate@V?$ModuleTag@$04$E?SPHERE_EMISSION_VOLUME_MODULE_KEY@FXParticleSystem@@3QBDB$E?SPHERE_EMISSION_VOLUME_MODULE_NAME@2@3QBDBVSphereEmissionVolumeModule@2@VSphereEmissionVolumeModuleTemplate@2@V?$DefaultParticleModule@$04@2@V?$DefaultParticleModuleTemplate@$04@2@@FXParticleSystem@@@FXParticleSystem@@QAE@XZ
_TEXT	SEGMENT PARA USE32 PUBLIC 'CODE'
_TEXT	ENDS
;	COMDAT ??1?$ConcreteModuleTemplate@V?$ModuleTag@$04$E?SPHERE_EMISSION_VOLUME_MODULE_KEY@FXParticleSystem@@3QBDB$E?SPHERE_EMISSION_VOLUME_MODULE_NAME@2@3QBDBVSphereEmissionVolumeModule@2@VSphereEmissionVolumeModuleTemplate@2@V?$DefaultParticleModule@$04@2@V?$DefaultParticleModuleTemplate@$04@2@@FXParticleSystem@@@FXParticleSystem@@QAE@XZ
_TEXT	SEGMENT PARA USE32 PUBLIC 'CODE'
_TEXT	ENDS
;	COMDAT ??4?$ConcreteModuleTemplate@V?$ModuleTag@$04$E?SPHERE_EMISSION_VOLUME_MODULE_KEY@FXParticleSystem@@3QBDB$E?SPHERE_EMISSION_VOLUME_MODULE_NAME@2@3QBDBVSphereEmissionVolumeModule@2@VSphereEmissionVolumeModuleTemplate@2@V?$DefaultParticleModule@$04@2@V?$DefaultParticleModuleTemplate@$04@2@@FXParticleSystem@@@FXParticleSystem@@QAEAAV01@ABV01@@Z
_TEXT	SEGMENT PARA USE32 PUBLIC 'CODE'
_TEXT	ENDS
;	COMDAT ?clone@?$ConcreteModuleTemplate@V?$ModuleTag@$04$E?SPHERE_EMISSION_VOLUME_MODULE_KEY@FXParticleSystem@@3QBDB$E?SPHERE_EMISSION_VOLUME_MODULE_NAME@2@3QBDBVSphereEmissionVolumeModule@2@VSphereEmissionVolumeModuleTemplate@2@V?$DefaultParticleModule@$04@2@V?$DefaultParticleModuleTemplate@$04@2@@FXParticleSystem@@@FXParticleSystem@@QBEPAVSphereEmissionVolumeModuleTemplate@2@XZ
_TEXT	SEGMENT PARA USE32 PUBLIC 'CODE'
_TEXT	ENDS
;	COMDAT ?createModule@?$ConcreteModuleTemplate@V?$ModuleTag@$04$E?SPHERE_EMISSION_VOLUME_MODULE_KEY@FXParticleSystem@@3QBDB$E?SPHERE_EMISSION_VOLUME_MODULE_NAME@2@3QBDBVSphereEmissionVolumeModule@2@VSphereEmissionVolumeModuleTemplate@2@V?$DefaultParticleModule@$04@2@V?$DefaultParticleModuleTemplate@$04@2@@FXParticleSystem@@@FXParticleSystem@@QAEPAVSphereEmissionVolumeModule@2@AAV?$TrackingPtr@VParticleSystem@FXParticleSystem@@@@@Z
_TEXT	SEGMENT PARA USE32 PUBLIC 'CODE'
_TEXT	ENDS
;	COMDAT ??0?$ConcreteModuleTemplate@V?$ModuleTag@$05$E?BUTTERFLY_DRAW_MODULE_KEY@FXParticleSystem@@3QBDB$E?BUTTERFLY_DRAW_MODULE_NAME@2@3QBDBVButterflyDrawModule@2@VButterflyDrawModuleTemplate@2@V?$DefaultParticleModule@$05@2@V?$DefaultParticleModuleTemplate@$05@2@@FXParticleSystem@@@FXParticleSystem@@QAE@ABV01@@Z
_TEXT	SEGMENT PARA USE32 PUBLIC 'CODE'
_TEXT	ENDS
;	COMDAT ??0?$ConcreteModuleTemplate@V?$ModuleTag@$05$E?BUTTERFLY_DRAW_MODULE_KEY@FXParticleSystem@@3QBDB$E?BUTTERFLY_DRAW_MODULE_NAME@2@3QBDBVButterflyDrawModule@2@VButterflyDrawModuleTemplate@2@V?$DefaultParticleModule@$05@2@V?$DefaultParticleModuleTemplate@$05@2@@FXParticleSystem@@@FXParticleSystem@@QAE@XZ
_TEXT	SEGMENT PARA USE32 PUBLIC 'CODE'
_TEXT	ENDS
;	COMDAT ??1?$ConcreteModuleTemplate@V?$ModuleTag@$05$E?BUTTERFLY_DRAW_MODULE_KEY@FXParticleSystem@@3QBDB$E?BUTTERFLY_DRAW_MODULE_NAME@2@3QBDBVButterflyDrawModule@2@VButterflyDrawModuleTemplate@2@V?$DefaultParticleModule@$05@2@V?$DefaultParticleModuleTemplate@$05@2@@FXParticleSystem@@@FXParticleSystem@@QAE@XZ
_TEXT	SEGMENT PARA USE32 PUBLIC 'CODE'
_TEXT	ENDS
;	COMDAT ??4?$ConcreteModuleTemplate@V?$ModuleTag@$05$E?BUTTERFLY_DRAW_MODULE_KEY@FXParticleSystem@@3QBDB$E?BUTTERFLY_DRAW_MODULE_NAME@2@3QBDBVButterflyDrawModule@2@VButterflyDrawModuleTemplate@2@V?$DefaultParticleModule@$05@2@V?$DefaultParticleModuleTemplate@$05@2@@FXParticleSystem@@@FXParticleSystem@@QAEAAV01@ABV01@@Z
_TEXT	SEGMENT PARA USE32 PUBLIC 'CODE'
_TEXT	ENDS
;	COMDAT ?clone@?$ConcreteModuleTemplate@V?$ModuleTag@$05$E?BUTTERFLY_DRAW_MODULE_KEY@FXParticleSystem@@3QBDB$E?BUTTERFLY_DRAW_MODULE_NAME@2@3QBDBVButterflyDrawModule@2@VButterflyDrawModuleTemplate@2@V?$DefaultParticleModule@$05@2@V?$DefaultParticleModuleTemplate@$05@2@@FXParticleSystem@@@FXParticleSystem@@QBEPAVButterflyDrawModuleTemplate@2@XZ
_TEXT	SEGMENT PARA USE32 PUBLIC 'CODE'
_TEXT	ENDS
;	COMDAT ?createModule@?$ConcreteModuleTemplate@V?$ModuleTag@$05$E?BUTTERFLY_DRAW_MODULE_KEY@FXParticleSystem@@3QBDB$E?BUTTERFLY_DRAW_MODULE_NAME@2@3QBDBVButterflyDrawModule@2@VButterflyDrawModuleTemplate@2@V?$DefaultParticleModule@$05@2@V?$DefaultParticleModuleTemplate@$05@2@@FXParticleSystem@@@FXParticleSystem@@QAEPAVButterflyDrawModule@2@AAV?$TrackingPtr@VParticleSystem@FXParticleSystem@@@@@Z
_TEXT	SEGMENT PARA USE32 PUBLIC 'CODE'
_TEXT	ENDS
;	COMDAT ??0?$ConcreteModuleTemplate@V?$ModuleTag@$05$E?LIGHTNING_DRAW_MODULE_KEY@FXParticleSystem@@3QBDB$E?LIGHTNING_DRAW_MODULE_NAME@2@3QBDBVLightningDrawModule@2@VLightningDrawModuleTemplate@2@V?$DefaultParticleModule@$05@2@V?$DefaultParticleModuleTemplate@$05@2@@FXParticleSystem@@@FXParticleSystem@@QAE@ABV01@@Z
_TEXT	SEGMENT PARA USE32 PUBLIC 'CODE'
_TEXT	ENDS
;	COMDAT ??0?$ConcreteModuleTemplate@V?$ModuleTag@$05$E?LIGHTNING_DRAW_MODULE_KEY@FXParticleSystem@@3QBDB$E?LIGHTNING_DRAW_MODULE_NAME@2@3QBDBVLightningDrawModule@2@VLightningDrawModuleTemplate@2@V?$DefaultParticleModule@$05@2@V?$DefaultParticleModuleTemplate@$05@2@@FXParticleSystem@@@FXParticleSystem@@QAE@XZ
_TEXT	SEGMENT PARA USE32 PUBLIC 'CODE'
_TEXT	ENDS
;	COMDAT ??1?$ConcreteModuleTemplate@V?$ModuleTag@$05$E?LIGHTNING_DRAW_MODULE_KEY@FXParticleSystem@@3QBDB$E?LIGHTNING_DRAW_MODULE_NAME@2@3QBDBVLightningDrawModule@2@VLightningDrawModuleTemplate@2@V?$DefaultParticleModule@$05@2@V?$DefaultParticleModuleTemplate@$05@2@@FXParticleSystem@@@FXParticleSystem@@QAE@XZ
_TEXT	SEGMENT PARA USE32 PUBLIC 'CODE'
_TEXT	ENDS
;	COMDAT ??4?$ConcreteModuleTemplate@V?$ModuleTag@$05$E?LIGHTNING_DRAW_MODULE_KEY@FXParticleSystem@@3QBDB$E?LIGHTNING_DRAW_MODULE_NAME@2@3QBDBVLightningDrawModule@2@VLightningDrawModuleTemplate@2@V?$DefaultParticleModule@$05@2@V?$DefaultParticleModuleTemplate@$05@2@@FXParticleSystem@@@FXParticleSystem@@QAEAAV01@ABV01@@Z
_TEXT	SEGMENT PARA USE32 PUBLIC 'CODE'
_TEXT	ENDS
;	COMDAT ?clone@?$ConcreteModuleTemplate@V?$ModuleTag@$05$E?LIGHTNING_DRAW_MODULE_KEY@FXParticleSystem@@3QBDB$E?LIGHTNING_DRAW_MODULE_NAME@2@3QBDBVLightningDrawModule@2@VLightningDrawModuleTemplate@2@V?$DefaultParticleModule@$05@2@V?$DefaultParticleModuleTemplate@$05@2@@FXParticleSystem@@@FXParticleSystem@@QBEPAVLightningDrawModuleTemplate@2@XZ
_TEXT	SEGMENT PARA USE32 PUBLIC 'CODE'
_TEXT	ENDS
;	COMDAT ?createModule@?$ConcreteModuleTemplate@V?$ModuleTag@$05$E?LIGHTNING_DRAW_MODULE_KEY@FXParticleSystem@@3QBDB$E?LIGHTNING_DRAW_MODULE_NAME@2@3QBDBVLightningDrawModule@2@VLightningDrawModuleTemplate@2@V?$DefaultParticleModule@$05@2@V?$DefaultParticleModuleTemplate@$05@2@@FXParticleSystem@@@FXParticleSystem@@QAEPAVLightningDrawModule@2@AAV?$TrackingPtr@VParticleSystem@FXParticleSystem@@@@@Z
_TEXT	SEGMENT PARA USE32 PUBLIC 'CODE'
_TEXT	ENDS
;	COMDAT ??0?$ConcreteModuleTemplate@V?$ModuleTag@$05$E?QUAD_DRAW_MODULE_KEY@FXParticleSystem@@3QBDB$E?QUAD_DRAW_MODULE_NAME@2@3QBDBVQuadDrawModule@2@VQuadDrawModuleTemplate@2@V?$DefaultParticleModule@$05@2@V?$DefaultParticleModuleTemplate@$05@2@@FXParticleSystem@@@FXParticleSystem@@QAE@ABV01@@Z
_TEXT	SEGMENT PARA USE32 PUBLIC 'CODE'
_TEXT	ENDS
;	COMDAT ??0?$ConcreteModuleTemplate@V?$ModuleTag@$05$E?QUAD_DRAW_MODULE_KEY@FXParticleSystem@@3QBDB$E?QUAD_DRAW_MODULE_NAME@2@3QBDBVQuadDrawModule@2@VQuadDrawModuleTemplate@2@V?$DefaultParticleModule@$05@2@V?$DefaultParticleModuleTemplate@$05@2@@FXParticleSystem@@@FXParticleSystem@@QAE@XZ
_TEXT	SEGMENT PARA USE32 PUBLIC 'CODE'
_TEXT	ENDS
;	COMDAT ??1?$ConcreteModuleTemplate@V?$ModuleTag@$05$E?QUAD_DRAW_MODULE_KEY@FXParticleSystem@@3QBDB$E?QUAD_DRAW_MODULE_NAME@2@3QBDBVQuadDrawModule@2@VQuadDrawModuleTemplate@2@V?$DefaultParticleModule@$05@2@V?$DefaultParticleModuleTemplate@$05@2@@FXParticleSystem@@@FXParticleSystem@@QAE@XZ
_TEXT	SEGMENT PARA USE32 PUBLIC 'CODE'
_TEXT	ENDS
;	COMDAT ??4?$ConcreteModuleTemplate@V?$ModuleTag@$05$E?QUAD_DRAW_MODULE_KEY@FXParticleSystem@@3QBDB$E?QUAD_DRAW_MODULE_NAME@2@3QBDBVQuadDrawModule@2@VQuadDrawModuleTemplate@2@V?$DefaultParticleModule@$05@2@V?$DefaultParticleModuleTemplate@$05@2@@FXParticleSystem@@@FXParticleSystem@@QAEAAV01@ABV01@@Z
_TEXT	SEGMENT PARA USE32 PUBLIC 'CODE'
_TEXT	ENDS
;	COMDAT ?clone@?$ConcreteModuleTemplate@V?$ModuleTag@$05$E?QUAD_DRAW_MODULE_KEY@FXParticleSystem@@3QBDB$E?QUAD_DRAW_MODULE_NAME@2@3QBDBVQuadDrawModule@2@VQuadDrawModuleTemplate@2@V?$DefaultParticleModule@$05@2@V?$DefaultParticleModuleTemplate@$05@2@@FXParticleSystem@@@FXParticleSystem@@QBEPAVQuadDrawModuleTemplate@2@XZ
_TEXT	SEGMENT PARA USE32 PUBLIC 'CODE'
_TEXT	ENDS
;	COMDAT ?createModule@?$ConcreteModuleTemplate@V?$ModuleTag@$05$E?QUAD_DRAW_MODULE_KEY@FXParticleSystem@@3QBDB$E?QUAD_DRAW_MODULE_NAME@2@3QBDBVQuadDrawModule@2@VQuadDrawModuleTemplate@2@V?$DefaultParticleModule@$05@2@V?$DefaultParticleModuleTemplate@$05@2@@FXParticleSystem@@@FXParticleSystem@@QAEPAVQuadDrawModule@2@AAV?$TrackingPtr@VParticleSystem@FXParticleSystem@@@@@Z
_TEXT	SEGMENT PARA USE32 PUBLIC 'CODE'
_TEXT	ENDS
;	COMDAT ??0?$ConcreteModuleTemplate@V?$ModuleTag@$05$E?RENDEROBJECT_DRAW_MODULE_KEY@FXParticleSystem@@3QBDB$E?RENDEROBJECT_DRAW_MODULE_NAME@2@3QBDBVRenderObjectDrawModule@2@VRenderObjectDrawModuleTemplate@2@V?$DefaultParticleModule@$05@2@V?$DefaultParticleModuleTemplate@$05@2@@FXParticleSystem@@@FXParticleSystem@@QAE@ABV01@@Z
_TEXT	SEGMENT PARA USE32 PUBLIC 'CODE'
_TEXT	ENDS
;	COMDAT ??0?$ConcreteModuleTemplate@V?$ModuleTag@$05$E?RENDEROBJECT_DRAW_MODULE_KEY@FXParticleSystem@@3QBDB$E?RENDEROBJECT_DRAW_MODULE_NAME@2@3QBDBVRenderObjectDrawModule@2@VRenderObjectDrawModuleTemplate@2@V?$DefaultParticleModule@$05@2@V?$DefaultParticleModuleTemplate@$05@2@@FXParticleSystem@@@FXParticleSystem@@QAE@XZ
_TEXT	SEGMENT PARA USE32 PUBLIC 'CODE'
_TEXT	ENDS
;	COMDAT ??1?$ConcreteModuleTemplate@V?$ModuleTag@$05$E?RENDEROBJECT_DRAW_MODULE_KEY@FXParticleSystem@@3QBDB$E?RENDEROBJECT_DRAW_MODULE_NAME@2@3QBDBVRenderObjectDrawModule@2@VRenderObjectDrawModuleTemplate@2@V?$DefaultParticleModule@$05@2@V?$DefaultParticleModuleTemplate@$05@2@@FXParticleSystem@@@FXParticleSystem@@QAE@XZ
_TEXT	SEGMENT PARA USE32 PUBLIC 'CODE'
_TEXT	ENDS
;	COMDAT ??4?$ConcreteModuleTemplate@V?$ModuleTag@$05$E?RENDEROBJECT_DRAW_MODULE_KEY@FXParticleSystem@@3QBDB$E?RENDEROBJECT_DRAW_MODULE_NAME@2@3QBDBVRenderObjectDrawModule@2@VRenderObjectDrawModuleTemplate@2@V?$DefaultParticleModule@$05@2@V?$DefaultParticleModuleTemplate@$05@2@@FXParticleSystem@@@FXParticleSystem@@QAEAAV01@ABV01@@Z
_TEXT	SEGMENT PARA USE32 PUBLIC 'CODE'
_TEXT	ENDS
;	COMDAT ?clone@?$ConcreteModuleTemplate@V?$ModuleTag@$05$E?RENDEROBJECT_DRAW_MODULE_KEY@FXParticleSystem@@3QBDB$E?RENDEROBJECT_DRAW_MODULE_NAME@2@3QBDBVRenderObjectDrawModule@2@VRenderObjectDrawModuleTemplate@2@V?$DefaultParticleModule@$05@2@V?$DefaultParticleModuleTemplate@$05@2@@FXParticleSystem@@@FXParticleSystem@@QBEPAVRenderObjectDrawModuleTemplate@2@XZ
_TEXT	SEGMENT PARA USE32 PUBLIC 'CODE'
_TEXT	ENDS
;	COMDAT ?createModule@?$ConcreteModuleTemplate@V?$ModuleTag@$05$E?RENDEROBJECT_DRAW_MODULE_KEY@FXParticleSystem@@3QBDB$E?RENDEROBJECT_DRAW_MODULE_NAME@2@3QBDBVRenderObjectDrawModule@2@VRenderObjectDrawModuleTemplate@2@V?$DefaultParticleModule@$05@2@V?$DefaultParticleModuleTemplate@$05@2@@FXParticleSystem@@@FXParticleSystem@@QAEPAVRenderObjectDrawModule@2@AAV?$TrackingPtr@VParticleSystem@FXParticleSystem@@@@@Z
_TEXT	SEGMENT PARA USE32 PUBLIC 'CODE'
_TEXT	ENDS
;	COMDAT ??0?$ConcreteModuleTemplate@V?$ModuleTag@$05$E?STREAK_DRAW_MODULE_KEY@FXParticleSystem@@3QBDB$E?STREAK_DRAW_MODULE_NAME@2@3QBDBVStreakDrawModule@2@VStreakDrawModuleTemplate@2@V?$DefaultParticleModule@$05@2@V?$DefaultParticleModuleTemplate@$05@2@@FXParticleSystem@@@FXParticleSystem@@QAE@ABV01@@Z
_TEXT	SEGMENT PARA USE32 PUBLIC 'CODE'
_TEXT	ENDS
;	COMDAT ??0?$ConcreteModuleTemplate@V?$ModuleTag@$05$E?STREAK_DRAW_MODULE_KEY@FXParticleSystem@@3QBDB$E?STREAK_DRAW_MODULE_NAME@2@3QBDBVStreakDrawModule@2@VStreakDrawModuleTemplate@2@V?$DefaultParticleModule@$05@2@V?$DefaultParticleModuleTemplate@$05@2@@FXParticleSystem@@@FXParticleSystem@@QAE@XZ
_TEXT	SEGMENT PARA USE32 PUBLIC 'CODE'
_TEXT	ENDS
;	COMDAT ??1?$ConcreteModuleTemplate@V?$ModuleTag@$05$E?STREAK_DRAW_MODULE_KEY@FXParticleSystem@@3QBDB$E?STREAK_DRAW_MODULE_NAME@2@3QBDBVStreakDrawModule@2@VStreakDrawModuleTemplate@2@V?$DefaultParticleModule@$05@2@V?$DefaultParticleModuleTemplate@$05@2@@FXParticleSystem@@@FXParticleSystem@@QAE@XZ
_TEXT	SEGMENT PARA USE32 PUBLIC 'CODE'
_TEXT	ENDS
;	COMDAT ??4?$ConcreteModuleTemplate@V?$ModuleTag@$05$E?STREAK_DRAW_MODULE_KEY@FXParticleSystem@@3QBDB$E?STREAK_DRAW_MODULE_NAME@2@3QBDBVStreakDrawModule@2@VStreakDrawModuleTemplate@2@V?$DefaultParticleModule@$05@2@V?$DefaultParticleModuleTemplate@$05@2@@FXParticleSystem@@@FXParticleSystem@@QAEAAV01@ABV01@@Z
_TEXT	SEGMENT PARA USE32 PUBLIC 'CODE'
_TEXT	ENDS
;	COMDAT ?clone@?$ConcreteModuleTemplate@V?$ModuleTag@$05$E?STREAK_DRAW_MODULE_KEY@FXParticleSystem@@3QBDB$E?STREAK_DRAW_MODULE_NAME@2@3QBDBVStreakDrawModule@2@VStreakDrawModuleTemplate@2@V?$DefaultParticleModule@$05@2@V?$DefaultParticleModuleTemplate@$05@2@@FXParticleSystem@@@FXParticleSystem@@QBEPAVStreakDrawModuleTemplate@2@XZ
_TEXT	SEGMENT PARA USE32 PUBLIC 'CODE'
_TEXT	ENDS
;	COMDAT ?createModule@?$ConcreteModuleTemplate@V?$ModuleTag@$05$E?STREAK_DRAW_MODULE_KEY@FXParticleSystem@@3QBDB$E?STREAK_DRAW_MODULE_NAME@2@3QBDBVStreakDrawModule@2@VStreakDrawModuleTemplate@2@V?$DefaultParticleModule@$05@2@V?$DefaultParticleModuleTemplate@$05@2@@FXParticleSystem@@@FXParticleSystem@@QAEPAVStreakDrawModule@2@AAV?$TrackingPtr@VParticleSystem@FXParticleSystem@@@@@Z
_TEXT	SEGMENT PARA USE32 PUBLIC 'CODE'
_TEXT	ENDS
;	COMDAT ??0?$ConcreteModuleTemplate@V?$ModuleTag@$07$E?LIFE_EVENT_MODULE_KEY@FXParticleSystem@@3QBDB$E?LIFE_EVENT_MODULE_NAME@2@3QBDBVLifeEventModule@2@VLifeEventModuleTemplate@2@VParticleLifeEventModule@2@VParticleLifeEventModuleTemplate@2@@FXParticleSystem@@@FXParticleSystem@@QAE@ABV01@@Z
_TEXT	SEGMENT PARA USE32 PUBLIC 'CODE'
_TEXT	ENDS
;	COMDAT ??0?$ConcreteModuleTemplate@V?$ModuleTag@$07$E?LIFE_EVENT_MODULE_KEY@FXParticleSystem@@3QBDB$E?LIFE_EVENT_MODULE_NAME@2@3QBDBVLifeEventModule@2@VLifeEventModuleTemplate@2@VParticleLifeEventModule@2@VParticleLifeEventModuleTemplate@2@@FXParticleSystem@@@FXParticleSystem@@QAE@XZ
_TEXT	SEGMENT PARA USE32 PUBLIC 'CODE'
_TEXT	ENDS
;	COMDAT ??1?$ConcreteModuleTemplate@V?$ModuleTag@$07$E?LIFE_EVENT_MODULE_KEY@FXParticleSystem@@3QBDB$E?LIFE_EVENT_MODULE_NAME@2@3QBDBVLifeEventModule@2@VLifeEventModuleTemplate@2@VParticleLifeEventModule@2@VParticleLifeEventModuleTemplate@2@@FXParticleSystem@@@FXParticleSystem@@QAE@XZ
_TEXT	SEGMENT PARA USE32 PUBLIC 'CODE'
_TEXT	ENDS
;	COMDAT ??4?$ConcreteModuleTemplate@V?$ModuleTag@$07$E?LIFE_EVENT_MODULE_KEY@FXParticleSystem@@3QBDB$E?LIFE_EVENT_MODULE_NAME@2@3QBDBVLifeEventModule@2@VLifeEventModuleTemplate@2@VParticleLifeEventModule@2@VParticleLifeEventModuleTemplate@2@@FXParticleSystem@@@FXParticleSystem@@QAEAAV01@ABV01@@Z
_TEXT	SEGMENT PARA USE32 PUBLIC 'CODE'
_TEXT	ENDS
;	COMDAT ?clone@?$ConcreteModuleTemplate@V?$ModuleTag@$07$E?LIFE_EVENT_MODULE_KEY@FXParticleSystem@@3QBDB$E?LIFE_EVENT_MODULE_NAME@2@3QBDBVLifeEventModule@2@VLifeEventModuleTemplate@2@VParticleLifeEventModule@2@VParticleLifeEventModuleTemplate@2@@FXParticleSystem@@@FXParticleSystem@@QBEPAVLifeEventModuleTemplate@2@XZ
_TEXT	SEGMENT PARA USE32 PUBLIC 'CODE'
_TEXT	ENDS
;	COMDAT ?createModule@?$ConcreteModuleTemplate@V?$ModuleTag@$07$E?LIFE_EVENT_MODULE_KEY@FXParticleSystem@@3QBDB$E?LIFE_EVENT_MODULE_NAME@2@3QBDBVLifeEventModule@2@VLifeEventModuleTemplate@2@VParticleLifeEventModule@2@VParticleLifeEventModuleTemplate@2@@FXParticleSystem@@@FXParticleSystem@@QAEPAVLifeEventModule@2@AAV?$TrackingPtr@VParticleSystem@FXParticleSystem@@@@@Z
_TEXT	SEGMENT PARA USE32 PUBLIC 'CODE'
_TEXT	ENDS
;	COMDAT ??0?$ConcreteModuleTemplate@V?$ModuleTag@$07$E?TERRAIN_COLLISION_MODULE_KEY@FXParticleSystem@@3QBDB$E?TERRAIN_COLLISION_MODULE_NAME@2@3QBDBVTerrainCollisionModule@2@VTerrainCollisionModuleTemplate@2@VParticleTerrainCollisionModule@2@VParticleTerrainCollisionModuleTemplate@2@@FXParticleSystem@@@FXParticleSystem@@QAE@ABV01@@Z
_TEXT	SEGMENT PARA USE32 PUBLIC 'CODE'
_TEXT	ENDS
;	COMDAT ??0?$ConcreteModuleTemplate@V?$ModuleTag@$07$E?TERRAIN_COLLISION_MODULE_KEY@FXParticleSystem@@3QBDB$E?TERRAIN_COLLISION_MODULE_NAME@2@3QBDBVTerrainCollisionModule@2@VTerrainCollisionModuleTemplate@2@VParticleTerrainCollisionModule@2@VParticleTerrainCollisionModuleTemplate@2@@FXParticleSystem@@@FXParticleSystem@@QAE@XZ
_TEXT	SEGMENT PARA USE32 PUBLIC 'CODE'
_TEXT	ENDS
;	COMDAT ??1?$ConcreteModuleTemplate@V?$ModuleTag@$07$E?TERRAIN_COLLISION_MODULE_KEY@FXParticleSystem@@3QBDB$E?TERRAIN_COLLISION_MODULE_NAME@2@3QBDBVTerrainCollisionModule@2@VTerrainCollisionModuleTemplate@2@VParticleTerrainCollisionModule@2@VParticleTerrainCollisionModuleTemplate@2@@FXParticleSystem@@@FXParticleSystem@@QAE@XZ
_TEXT	SEGMENT PARA USE32 PUBLIC 'CODE'
_TEXT	ENDS
;	COMDAT ??4?$ConcreteModuleTemplate@V?$ModuleTag@$07$E?TERRAIN_COLLISION_MODULE_KEY@FXParticleSystem@@3QBDB$E?TERRAIN_COLLISION_MODULE_NAME@2@3QBDBVTerrainCollisionModule@2@VTerrainCollisionModuleTemplate@2@VParticleTerrainCollisionModule@2@VParticleTerrainCollisionModuleTemplate@2@@FXParticleSystem@@@FXParticleSystem@@QAEAAV01@ABV01@@Z
_TEXT	SEGMENT PARA USE32 PUBLIC 'CODE'
_TEXT	ENDS
;	COMDAT ?clone@?$ConcreteModuleTemplate@V?$ModuleTag@$07$E?TERRAIN_COLLISION_MODULE_KEY@FXParticleSystem@@3QBDB$E?TERRAIN_COLLISION_MODULE_NAME@2@3QBDBVTerrainCollisionModule@2@VTerrainCollisionModuleTemplate@2@VParticleTerrainCollisionModule@2@VParticleTerrainCollisionModuleTemplate@2@@FXParticleSystem@@@FXParticleSystem@@QBEPAVTerrainCollisionModuleTemplate@2@XZ
_TEXT	SEGMENT PARA USE32 PUBLIC 'CODE'
_TEXT	ENDS
;	COMDAT ?createModule@?$ConcreteModuleTemplate@V?$ModuleTag@$07$E?TERRAIN_COLLISION_MODULE_KEY@FXParticleSystem@@3QBDB$E?TERRAIN_COLLISION_MODULE_NAME@2@3QBDBVTerrainCollisionModule@2@VTerrainCollisionModuleTemplate@2@VParticleTerrainCollisionModule@2@VParticleTerrainCollisionModuleTemplate@2@@FXParticleSystem@@@FXParticleSystem@@QAEPAVTerrainCollisionModule@2@AAV?$TrackingPtr@VParticleSystem@FXParticleSystem@@@@@Z
_TEXT	SEGMENT PARA USE32 PUBLIC 'CODE'
_TEXT	ENDS
;	COMDAT ??0?$ConcreteModuleTemplate@UOrthoEmissionVelocityModuleTag@FXParticleSystem@@@FXParticleSystem@@QAE@ABV01@@Z
_TEXT	SEGMENT PARA USE32 PUBLIC 'CODE'
_TEXT	ENDS
;	COMDAT ??0?$ConcreteModuleTemplate@UOrthoEmissionVelocityModuleTag@FXParticleSystem@@@FXParticleSystem@@QAE@XZ
_TEXT	SEGMENT PARA USE32 PUBLIC 'CODE'
_TEXT	ENDS
;	COMDAT ??1?$ConcreteModuleTemplate@UOrthoEmissionVelocityModuleTag@FXParticleSystem@@@FXParticleSystem@@QAE@XZ
_TEXT	SEGMENT PARA USE32 PUBLIC 'CODE'
_TEXT	ENDS
;	COMDAT ??4?$ConcreteModuleTemplate@UOrthoEmissionVelocityModuleTag@FXParticleSystem@@@FXParticleSystem@@QAEAAV01@ABV01@@Z
_TEXT	SEGMENT PARA USE32 PUBLIC 'CODE'
_TEXT	ENDS
;	COMDAT ?clone@?$ConcreteModuleTemplate@UOrthoEmissionVelocityModuleTag@FXParticleSystem@@@FXParticleSystem@@QBEPAVOrthoEmissionVelocityModuleTemplate@2@XZ
_TEXT	SEGMENT PARA USE32 PUBLIC 'CODE'
_TEXT	ENDS
;	COMDAT ?createModule@?$ConcreteModuleTemplate@UOrthoEmissionVelocityModuleTag@FXParticleSystem@@@FXParticleSystem@@QAEPAVOrthoEmissionVelocityModule@2@AAV?$TrackingPtr@VParticleSystem@FXParticleSystem@@@@@Z
_TEXT	SEGMENT PARA USE32 PUBLIC 'CODE'
_TEXT	ENDS
;	COMDAT ??0?$ConcreteModuleTemplate@UPointEmissionVolumeModuleTag@FXParticleSystem@@@FXParticleSystem@@QAE@ABV01@@Z
_TEXT	SEGMENT PARA USE32 PUBLIC 'CODE'
_TEXT	ENDS
;	COMDAT ??0?$ConcreteModuleTemplate@UPointEmissionVolumeModuleTag@FXParticleSystem@@@FXParticleSystem@@QAE@XZ
_TEXT	SEGMENT PARA USE32 PUBLIC 'CODE'
_TEXT	ENDS
;	COMDAT ??1?$ConcreteModuleTemplate@UPointEmissionVolumeModuleTag@FXParticleSystem@@@FXParticleSystem@@QAE@XZ
_TEXT	SEGMENT PARA USE32 PUBLIC 'CODE'
_TEXT	ENDS
;	COMDAT ??4?$ConcreteModuleTemplate@UPointEmissionVolumeModuleTag@FXParticleSystem@@@FXParticleSystem@@QAEAAV01@ABV01@@Z
_TEXT	SEGMENT PARA USE32 PUBLIC 'CODE'
_TEXT	ENDS
;	COMDAT ?clone@?$ConcreteModuleTemplate@UPointEmissionVolumeModuleTag@FXParticleSystem@@@FXParticleSystem@@QBEPAVPointEmissionVolumeModuleTemplate@2@XZ
_TEXT	SEGMENT PARA USE32 PUBLIC 'CODE'
_TEXT	ENDS
;	COMDAT ?createModule@?$ConcreteModuleTemplate@UPointEmissionVolumeModuleTag@FXParticleSystem@@@FXParticleSystem@@QAEPAVPointEmissionVolumeModule@2@AAV?$TrackingPtr@VParticleSystem@FXParticleSystem@@@@@Z
_TEXT	SEGMENT PARA USE32 PUBLIC 'CODE'
_TEXT	ENDS
;	COMDAT ??0BoxEmissionVolumeModuleTemplate@FXParticleSystem@@QAE@ABV01@@Z
_TEXT	SEGMENT PARA USE32 PUBLIC 'CODE'
_TEXT	ENDS
;	COMDAT ??_GBoxEmissionVolumeModuleTemplate@FXParticleSystem@@UAEPAXI@Z
_TEXT	SEGMENT PARA USE32 PUBLIC 'CODE'
_TEXT	ENDS
;	COMDAT ??0BoxEmissionVolumeModuleTemplate@FXParticleSystem@@QAE@XZ
_TEXT	SEGMENT PARA USE32 PUBLIC 'CODE'
_TEXT	ENDS
;	COMDAT ??0ButterflyDrawModuleTemplate@FXParticleSystem@@QAE@ABV01@@Z
_TEXT	SEGMENT PARA USE32 PUBLIC 'CODE'
_TEXT	ENDS
;	COMDAT ??_GButterflyDrawModuleTemplate@FXParticleSystem@@UAEPAXI@Z
_TEXT	SEGMENT PARA USE32 PUBLIC 'CODE'
_TEXT	ENDS
;	COMDAT ??0ButterflyDrawModuleTemplate@FXParticleSystem@@QAE@XZ
_TEXT	SEGMENT PARA USE32 PUBLIC 'CODE'
_TEXT	ENDS
;	COMDAT ??0CylinderEmissionVolumeModuleTemplate@FXParticleSystem@@QAE@ABV01@@Z
_TEXT	SEGMENT PARA USE32 PUBLIC 'CODE'
_TEXT	ENDS
;	COMDAT ??_GCylinderEmissionVolumeModuleTemplate@FXParticleSystem@@UAEPAXI@Z
_TEXT	SEGMENT PARA USE32 PUBLIC 'CODE'
_TEXT	ENDS
;	COMDAT ??0CylinderEmissionVolumeModuleTemplate@FXParticleSystem@@QAE@XZ
_TEXT	SEGMENT PARA USE32 PUBLIC 'CODE'
_TEXT	ENDS
;	COMDAT ??0CylindricalEmissionVelocityInfo@FXParticleSystem@@QAE@ABV01@@Z
_TEXT	SEGMENT PARA USE32 PUBLIC 'CODE'
_TEXT	ENDS
;	COMDAT ??_GCylindricalEmissionVelocityInfo@FXParticleSystem@@UAEPAXI@Z
_TEXT	SEGMENT PARA USE32 PUBLIC 'CODE'
_TEXT	ENDS
;	COMDAT ??0CylindricalEmissionVelocityInfo@FXParticleSystem@@QAE@XZ
_TEXT	SEGMENT PARA USE32 PUBLIC 'CODE'
_TEXT	ENDS
;	COMDAT ??0CylindricalEmissionVelocityModuleTemplate@FXParticleSystem@@QAE@ABV01@@Z
_TEXT	SEGMENT PARA USE32 PUBLIC 'CODE'
_TEXT	ENDS
;	COMDAT ??_GCylindricalEmissionVelocityModuleTemplate@FXParticleSystem@@UAEPAXI@Z
_TEXT	SEGMENT PARA USE32 PUBLIC 'CODE'
_TEXT	ENDS
;	COMDAT ??0CylindricalEmissionVelocityModuleTemplate@FXParticleSystem@@QAE@XZ
_TEXT	SEGMENT PARA USE32 PUBLIC 'CODE'
_TEXT	ENDS
;	COMDAT ??0DefaultAlphaModuleInfo@FXParticleSystem@@QAE@ABV01@@Z
_TEXT	SEGMENT PARA USE32 PUBLIC 'CODE'
_TEXT	ENDS
;	COMDAT ??_GDefaultAlphaModuleInfo@FXParticleSystem@@UAEPAXI@Z
_TEXT	SEGMENT PARA USE32 PUBLIC 'CODE'
_TEXT	ENDS
;	COMDAT ??0DefaultAlphaModuleInfo@FXParticleSystem@@QAE@XZ
_TEXT	SEGMENT PARA USE32 PUBLIC 'CODE'
_TEXT	ENDS
;	COMDAT ??0DefaultColorModuleInfo@FXParticleSystem@@QAE@ABV01@@Z
_TEXT	SEGMENT PARA USE32 PUBLIC 'CODE'
_TEXT	ENDS
;	COMDAT ??_GDefaultColorModuleInfo@FXParticleSystem@@UAEPAXI@Z
_TEXT	SEGMENT PARA USE32 PUBLIC 'CODE'
_TEXT	ENDS
;	COMDAT ??0DefaultColorModuleInfo@FXParticleSystem@@QAE@XZ
_TEXT	SEGMENT PARA USE32 PUBLIC 'CODE'
_TEXT	ENDS
;	COMDAT ??0DefaultPhysicsModuleInfo@FXParticleSystem@@QAE@ABV01@@Z
_TEXT	SEGMENT PARA USE32 PUBLIC 'CODE'
_TEXT	ENDS
;	COMDAT ??_GDefaultPhysicsModuleInfo@FXParticleSystem@@UAEPAXI@Z
_TEXT	SEGMENT PARA USE32 PUBLIC 'CODE'
_TEXT	ENDS
;	COMDAT ??0DefaultPhysicsModuleInfo@FXParticleSystem@@QAE@XZ
_TEXT	SEGMENT PARA USE32 PUBLIC 'CODE'
_TEXT	ENDS
;	COMDAT ??0DefaultUpdateModuleInfo@FXParticleSystem@@QAE@ABV01@@Z
_TEXT	SEGMENT PARA USE32 PUBLIC 'CODE'
_TEXT	ENDS
;	COMDAT ??_GDefaultUpdateModuleInfo@FXParticleSystem@@UAEPAXI@Z
_TEXT	SEGMENT PARA USE32 PUBLIC 'CODE'
_TEXT	ENDS
;	COMDAT ??0DefaultUpdateModuleInfo@FXParticleSystem@@QAE@XZ
_TEXT	SEGMENT PARA USE32 PUBLIC 'CODE'
_TEXT	ENDS
;	COMDAT ??0HemisphericalEmissionVelocityModuleTemplate@FXParticleSystem@@QAE@ABV01@@Z
_TEXT	SEGMENT PARA USE32 PUBLIC 'CODE'
_TEXT	ENDS
;	COMDAT ??_GHemisphericalEmissionVelocityModuleTemplate@FXParticleSystem@@UAEPAXI@Z
_TEXT	SEGMENT PARA USE32 PUBLIC 'CODE'
_TEXT	ENDS
;	COMDAT ??0HemisphericalEmissionVelocityModuleTemplate@FXParticleSystem@@QAE@XZ
_TEXT	SEGMENT PARA USE32 PUBLIC 'CODE'
_TEXT	ENDS
;	COMDAT ??0LifeEventModuleInfo@FXParticleSystem@@QAE@ABV01@@Z
_TEXT	SEGMENT PARA USE32 PUBLIC 'CODE'
_TEXT	ENDS
;	COMDAT ??_GLifeEventModuleInfo@FXParticleSystem@@UAEPAXI@Z
_TEXT	SEGMENT PARA USE32 PUBLIC 'CODE'
_TEXT	ENDS
;	COMDAT ??0LifeEventModuleInfo@FXParticleSystem@@QAE@XZ
_TEXT	SEGMENT PARA USE32 PUBLIC 'CODE'
_TEXT	ENDS
;	COMDAT ??0LifeEventModuleTemplate@FXParticleSystem@@QAE@ABV01@@Z
_TEXT	SEGMENT PARA USE32 PUBLIC 'CODE'
_TEXT	ENDS
;	COMDAT ??_GLifeEventModuleTemplate@FXParticleSystem@@UAEPAXI@Z
_TEXT	SEGMENT PARA USE32 PUBLIC 'CODE'
_TEXT	ENDS
;	COMDAT ??0LifeEventModuleTemplate@FXParticleSystem@@QAE@XZ
_TEXT	SEGMENT PARA USE32 PUBLIC 'CODE'
_TEXT	ENDS
;	COMDAT ??0LightningDrawModuleInfo@FXParticleSystem@@QAE@ABV01@@Z
_TEXT	SEGMENT PARA USE32 PUBLIC 'CODE'
_TEXT	ENDS
;	COMDAT ??_GLightningDrawModuleInfo@FXParticleSystem@@UAEPAXI@Z
_TEXT	SEGMENT PARA USE32 PUBLIC 'CODE'
_TEXT	ENDS
;	COMDAT ??0LightningDrawModuleInfo@FXParticleSystem@@QAE@XZ
_TEXT	SEGMENT PARA USE32 PUBLIC 'CODE'
_TEXT	ENDS
;	COMDAT ??0LightningDrawModuleTemplate@FXParticleSystem@@QAE@ABV01@@Z
_TEXT	SEGMENT PARA USE32 PUBLIC 'CODE'
_TEXT	ENDS
;	COMDAT ??_GLightningDrawModuleTemplate@FXParticleSystem@@UAEPAXI@Z
_TEXT	SEGMENT PARA USE32 PUBLIC 'CODE'
_TEXT	ENDS
;	COMDAT ??0LightningDrawModuleTemplate@FXParticleSystem@@QAE@XZ
_TEXT	SEGMENT PARA USE32 PUBLIC 'CODE'
_TEXT	ENDS
;	COMDAT ??0LightningEmissionInfo@FXParticleSystem@@QAE@ABV01@@Z
_TEXT	SEGMENT PARA USE32 PUBLIC 'CODE'
_TEXT	ENDS
;	COMDAT ??_GLightningEmissionInfo@FXParticleSystem@@UAEPAXI@Z
_TEXT	SEGMENT PARA USE32 PUBLIC 'CODE'
_TEXT	ENDS
;	COMDAT ??0LightningEmissionInfo@FXParticleSystem@@QAE@XZ
_TEXT	SEGMENT PARA USE32 PUBLIC 'CODE'
_TEXT	ENDS
;	COMDAT ??0LightningEmissionModuleTemplate@FXParticleSystem@@QAE@ABV01@@Z
_TEXT	SEGMENT PARA USE32 PUBLIC 'CODE'
_TEXT	ENDS
;	COMDAT ??_GLightningEmissionModuleTemplate@FXParticleSystem@@UAEPAXI@Z
_TEXT	SEGMENT PARA USE32 PUBLIC 'CODE'
_TEXT	ENDS
;	COMDAT ??0LightningEmissionModuleTemplate@FXParticleSystem@@QAE@XZ
_TEXT	SEGMENT PARA USE32 PUBLIC 'CODE'
_TEXT	ENDS
;	COMDAT ??0LineEmissionVolumeInfo@FXParticleSystem@@QAE@ABV01@@Z
_TEXT	SEGMENT PARA USE32 PUBLIC 'CODE'
_TEXT	ENDS
;	COMDAT ??_GLineEmissionVolumeInfo@FXParticleSystem@@UAEPAXI@Z
_TEXT	SEGMENT PARA USE32 PUBLIC 'CODE'
_TEXT	ENDS
;	COMDAT ??0LineEmissionVolumeModuleTemplate@FXParticleSystem@@QAE@ABV01@@Z
_TEXT	SEGMENT PARA USE32 PUBLIC 'CODE'
_TEXT	ENDS
;	COMDAT ??_GLineEmissionVolumeModuleTemplate@FXParticleSystem@@UAEPAXI@Z
_TEXT	SEGMENT PARA USE32 PUBLIC 'CODE'
_TEXT	ENDS
;	COMDAT ??0LineEmissionVolumeModuleTemplate@FXParticleSystem@@QAE@XZ
_TEXT	SEGMENT PARA USE32 PUBLIC 'CODE'
_TEXT	ENDS
;	COMDAT ??0OrthoEmissionVelocityInfo@FXParticleSystem@@QAE@ABV01@@Z
_TEXT	SEGMENT PARA USE32 PUBLIC 'CODE'
_TEXT	ENDS
;	COMDAT ??_GOrthoEmissionVelocityInfo@FXParticleSystem@@UAEPAXI@Z
_TEXT	SEGMENT PARA USE32 PUBLIC 'CODE'
_TEXT	ENDS
;	COMDAT ??0OrthoEmissionVelocityInfo@FXParticleSystem@@QAE@XZ
_TEXT	SEGMENT PARA USE32 PUBLIC 'CODE'
_TEXT	ENDS
;	COMDAT ??0OrthoEmissionVelocityModuleTemplate@FXParticleSystem@@QAE@ABV01@@Z
_TEXT	SEGMENT PARA USE32 PUBLIC 'CODE'
_TEXT	ENDS
;	COMDAT ??_GOrthoEmissionVelocityModuleTemplate@FXParticleSystem@@UAEPAXI@Z
_TEXT	SEGMENT PARA USE32 PUBLIC 'CODE'
_TEXT	ENDS
;	COMDAT ??0OrthoEmissionVelocityModuleTemplate@FXParticleSystem@@QAE@XZ
_TEXT	SEGMENT PARA USE32 PUBLIC 'CODE'
_TEXT	ENDS
;	COMDAT ??0OutwardEmissionVelocityInfo@FXParticleSystem@@QAE@ABV01@@Z
_TEXT	SEGMENT PARA USE32 PUBLIC 'CODE'
_TEXT	ENDS
;	COMDAT ??_GOutwardEmissionVelocityInfo@FXParticleSystem@@UAEPAXI@Z
_TEXT	SEGMENT PARA USE32 PUBLIC 'CODE'
_TEXT	ENDS
;	COMDAT ??0OutwardEmissionVelocityInfo@FXParticleSystem@@QAE@XZ
_TEXT	SEGMENT PARA USE32 PUBLIC 'CODE'
_TEXT	ENDS
;	COMDAT ??0OutwardEmissionVelocityModuleTemplate@FXParticleSystem@@QAE@ABV01@@Z
_TEXT	SEGMENT PARA USE32 PUBLIC 'CODE'
_TEXT	ENDS
;	COMDAT ??_GOutwardEmissionVelocityModuleTemplate@FXParticleSystem@@UAEPAXI@Z
_TEXT	SEGMENT PARA USE32 PUBLIC 'CODE'
_TEXT	ENDS
;	COMDAT ??0OutwardEmissionVelocityModuleTemplate@FXParticleSystem@@QAE@XZ
_TEXT	SEGMENT PARA USE32 PUBLIC 'CODE'
_TEXT	ENDS
;	COMDAT ??0ParticleSystemInfo@FXParticleSystem@@QAE@ABV01@@Z
_TEXT	SEGMENT PARA USE32 PUBLIC 'CODE'
_TEXT	ENDS
;	COMDAT ??_GParticleSystemInfo@FXParticleSystem@@UAEPAXI@Z
_TEXT	SEGMENT PARA USE32 PUBLIC 'CODE'
_TEXT	ENDS
;	COMDAT ??0ParticleSystemInfo@FXParticleSystem@@QAE@XZ
_TEXT	SEGMENT PARA USE32 PUBLIC 'CODE'
_TEXT	ENDS
;	COMDAT ??0ParticleSystemTemplate@FXParticleSystem@@QAE@ABV01@@Z
_TEXT	SEGMENT PARA USE32 PUBLIC 'CODE'
_TEXT	ENDS
;	COMDAT ??_GParticleSystemTemplate@FXParticleSystem@@UAEPAXI@Z
_TEXT	SEGMENT PARA USE32 PUBLIC 'CODE'
_TEXT	ENDS
;	COMDAT ??0ParticleSystemTemplate@FXParticleSystem@@QAE@ABVAsciiString@@@Z
_TEXT	SEGMENT PARA USE32 PUBLIC 'CODE'
_TEXT	ENDS
;	COMDAT ??0PointEmissionVolumeModuleTemplate@FXParticleSystem@@QAE@ABV01@@Z
_TEXT	SEGMENT PARA USE32 PUBLIC 'CODE'
_TEXT	ENDS
;	COMDAT ??_GPointEmissionVolumeModuleTemplate@FXParticleSystem@@UAEPAXI@Z
_TEXT	SEGMENT PARA USE32 PUBLIC 'CODE'
_TEXT	ENDS
;	COMDAT ??0PointEmissionVolumeModuleTemplate@FXParticleSystem@@QAE@XZ
_TEXT	SEGMENT PARA USE32 PUBLIC 'CODE'
_TEXT	ENDS
;	COMDAT ??0QuadDrawModuleTemplate@FXParticleSystem@@QAE@ABV01@@Z
_TEXT	SEGMENT PARA USE32 PUBLIC 'CODE'
_TEXT	ENDS
;	COMDAT ??_GQuadDrawModuleTemplate@FXParticleSystem@@UAEPAXI@Z
_TEXT	SEGMENT PARA USE32 PUBLIC 'CODE'
_TEXT	ENDS
;	COMDAT ??0QuadDrawModuleTemplate@FXParticleSystem@@QAE@XZ
_TEXT	SEGMENT PARA USE32 PUBLIC 'CODE'
_TEXT	ENDS
;	COMDAT ??0RenderObjectDrawModuleInfo@FXParticleSystem@@QAE@ABV01@@Z
_TEXT	SEGMENT PARA USE32 PUBLIC 'CODE'
_TEXT	ENDS
;	COMDAT ??_GRenderObjectDrawModuleInfo@FXParticleSystem@@UAEPAXI@Z
_TEXT	SEGMENT PARA USE32 PUBLIC 'CODE'
_TEXT	ENDS
;	COMDAT ??0RenderObjectDrawModuleInfo@FXParticleSystem@@QAE@XZ
_TEXT	SEGMENT PARA USE32 PUBLIC 'CODE'
_TEXT	ENDS
;	COMDAT ??0RenderObjectDrawModuleTemplate@FXParticleSystem@@QAE@ABV01@@Z
_TEXT	SEGMENT PARA USE32 PUBLIC 'CODE'
_TEXT	ENDS
;	COMDAT ??_GRenderObjectDrawModuleTemplate@FXParticleSystem@@UAEPAXI@Z
_TEXT	SEGMENT PARA USE32 PUBLIC 'CODE'
_TEXT	ENDS
;	COMDAT ??0RenderObjectDrawModuleTemplate@FXParticleSystem@@QAE@XZ
_TEXT	SEGMENT PARA USE32 PUBLIC 'CODE'
_TEXT	ENDS
;	COMDAT ??0RenderObjectUpdateModuleInfo@FXParticleSystem@@QAE@ABV01@@Z
_TEXT	SEGMENT PARA USE32 PUBLIC 'CODE'
_TEXT	ENDS
;	COMDAT ??_GRenderObjectUpdateModuleInfo@FXParticleSystem@@UAEPAXI@Z
_TEXT	SEGMENT PARA USE32 PUBLIC 'CODE'
_TEXT	ENDS
;	COMDAT ??0RenderObjectUpdateModuleInfo@FXParticleSystem@@QAE@XZ
_TEXT	SEGMENT PARA USE32 PUBLIC 'CODE'
_TEXT	ENDS
;	COMDAT ??0RenderObjectUpdateModuleTemplate@FXParticleSystem@@QAE@ABV01@@Z
_TEXT	SEGMENT PARA USE32 PUBLIC 'CODE'
_TEXT	ENDS
;	COMDAT ??_GRenderObjectUpdateModuleTemplate@FXParticleSystem@@UAEPAXI@Z
_TEXT	SEGMENT PARA USE32 PUBLIC 'CODE'
_TEXT	ENDS
;	COMDAT ??0RenderObjectUpdateModuleTemplate@FXParticleSystem@@QAE@XZ
_TEXT	SEGMENT PARA USE32 PUBLIC 'CODE'
_TEXT	ENDS
;	COMDAT ??0SphereEmissionVolumeInfo@FXParticleSystem@@QAE@ABV01@@Z
_TEXT	SEGMENT PARA USE32 PUBLIC 'CODE'
_TEXT	ENDS
;	COMDAT ??_GSphereEmissionVolumeInfo@FXParticleSystem@@UAEPAXI@Z
_TEXT	SEGMENT PARA USE32 PUBLIC 'CODE'
_TEXT	ENDS
;	COMDAT ??0SphereEmissionVolumeModuleTemplate@FXParticleSystem@@QAE@ABV01@@Z
_TEXT	SEGMENT PARA USE32 PUBLIC 'CODE'
_TEXT	ENDS
;	COMDAT ??_GSphereEmissionVolumeModuleTemplate@FXParticleSystem@@UAEPAXI@Z
_TEXT	SEGMENT PARA USE32 PUBLIC 'CODE'
_TEXT	ENDS
;	COMDAT ??0SphereEmissionVolumeModuleTemplate@FXParticleSystem@@QAE@XZ
_TEXT	SEGMENT PARA USE32 PUBLIC 'CODE'
_TEXT	ENDS
;	COMDAT ??0SphericalEmissionVelocityInfo@FXParticleSystem@@QAE@ABV01@@Z
_TEXT	SEGMENT PARA USE32 PUBLIC 'CODE'
_TEXT	ENDS
;	COMDAT ??_GSphericalEmissionVelocityInfo@FXParticleSystem@@UAEPAXI@Z
_TEXT	SEGMENT PARA USE32 PUBLIC 'CODE'
_TEXT	ENDS
;	COMDAT ??0SphericalEmissionVelocityInfo@FXParticleSystem@@QAE@XZ
_TEXT	SEGMENT PARA USE32 PUBLIC 'CODE'
_TEXT	ENDS
;	COMDAT ??0SphericalEmissionVelocityModuleTemplate@FXParticleSystem@@QAE@ABV01@@Z
_TEXT	SEGMENT PARA USE32 PUBLIC 'CODE'
_TEXT	ENDS
;	COMDAT ??_GSphericalEmissionVelocityModuleTemplate@FXParticleSystem@@UAEPAXI@Z
_TEXT	SEGMENT PARA USE32 PUBLIC 'CODE'
_TEXT	ENDS
;	COMDAT ??0SphericalEmissionVelocityModuleTemplate@FXParticleSystem@@QAE@XZ
_TEXT	SEGMENT PARA USE32 PUBLIC 'CODE'
_TEXT	ENDS
;	COMDAT ??0StreakDrawModuleTemplate@FXParticleSystem@@QAE@ABV01@@Z
_TEXT	SEGMENT PARA USE32 PUBLIC 'CODE'
_TEXT	ENDS
;	COMDAT ??_GStreakDrawModuleTemplate@FXParticleSystem@@UAEPAXI@Z
_TEXT	SEGMENT PARA USE32 PUBLIC 'CODE'
_TEXT	ENDS
;	COMDAT ??0StreakDrawModuleTemplate@FXParticleSystem@@QAE@XZ
_TEXT	SEGMENT PARA USE32 PUBLIC 'CODE'
_TEXT	ENDS
;	COMDAT ??0TerrainCollisionModuleInfo@FXParticleSystem@@QAE@ABV01@@Z
_TEXT	SEGMENT PARA USE32 PUBLIC 'CODE'
_TEXT	ENDS
;	COMDAT ??_GTerrainCollisionModuleInfo@FXParticleSystem@@UAEPAXI@Z
_TEXT	SEGMENT PARA USE32 PUBLIC 'CODE'
_TEXT	ENDS
;	COMDAT ??0TerrainCollisionModuleInfo@FXParticleSystem@@QAE@XZ
_TEXT	SEGMENT PARA USE32 PUBLIC 'CODE'
_TEXT	ENDS
;	COMDAT ??0TerrainCollisionModuleTemplate@FXParticleSystem@@QAE@ABV01@@Z
_TEXT	SEGMENT PARA USE32 PUBLIC 'CODE'
_TEXT	ENDS
;	COMDAT ??_GTerrainCollisionModuleTemplate@FXParticleSystem@@UAEPAXI@Z
_TEXT	SEGMENT PARA USE32 PUBLIC 'CODE'
_TEXT	ENDS
;	COMDAT ??0TerrainCollisionModuleTemplate@FXParticleSystem@@QAE@XZ
_TEXT	SEGMENT PARA USE32 PUBLIC 'CODE'
_TEXT	ENDS
;	COMDAT ??0WindModuleInfo@FXParticleSystem@@QAE@ABV01@@Z
_TEXT	SEGMENT PARA USE32 PUBLIC 'CODE'
_TEXT	ENDS
;	COMDAT ??_GWindModuleInfo@FXParticleSystem@@UAEPAXI@Z
_TEXT	SEGMENT PARA USE32 PUBLIC 'CODE'
_TEXT	ENDS
;	COMDAT ??0WindModuleInfo@FXParticleSystem@@QAE@XZ
_TEXT	SEGMENT PARA USE32 PUBLIC 'CODE'
_TEXT	ENDS
;	COMDAT ??1BoxEmissionVolumeModuleTemplate@FXParticleSystem@@UAE@XZ
_TEXT	SEGMENT PARA USE32 PUBLIC 'CODE'
_TEXT	ENDS
;	COMDAT ??1ButterflyDrawModuleTemplate@FXParticleSystem@@UAE@XZ
_TEXT	SEGMENT PARA USE32 PUBLIC 'CODE'
_TEXT	ENDS
;	COMDAT ??1CylinderEmissionVolumeModuleTemplate@FXParticleSystem@@UAE@XZ
_TEXT	SEGMENT PARA USE32 PUBLIC 'CODE'
_TEXT	ENDS
;	COMDAT ??1CylindricalEmissionVelocityModuleTemplate@FXParticleSystem@@UAE@XZ
_TEXT	SEGMENT PARA USE32 PUBLIC 'CODE'
_TEXT	ENDS
;	COMDAT ??1HemisphericalEmissionVelocityModuleTemplate@FXParticleSystem@@UAE@XZ
_TEXT	SEGMENT PARA USE32 PUBLIC 'CODE'
_TEXT	ENDS
;	COMDAT ??1LifeEventModuleInfo@FXParticleSystem@@UAE@XZ
_TEXT	SEGMENT PARA USE32 PUBLIC 'CODE'
_TEXT	ENDS
;	COMDAT ??1LifeEventModuleTemplate@FXParticleSystem@@UAE@XZ
_TEXT	SEGMENT PARA USE32 PUBLIC 'CODE'
_TEXT	ENDS
;	COMDAT ??1LightningDrawModuleTemplate@FXParticleSystem@@UAE@XZ
_TEXT	SEGMENT PARA USE32 PUBLIC 'CODE'
_TEXT	ENDS
;	COMDAT ??1LightningEmissionModuleTemplate@FXParticleSystem@@UAE@XZ
_TEXT	SEGMENT PARA USE32 PUBLIC 'CODE'
_TEXT	ENDS
;	COMDAT ??1LineEmissionVolumeModuleTemplate@FXParticleSystem@@UAE@XZ
_TEXT	SEGMENT PARA USE32 PUBLIC 'CODE'
_TEXT	ENDS
;	COMDAT ??1OrthoEmissionVelocityModuleTemplate@FXParticleSystem@@UAE@XZ
_TEXT	SEGMENT PARA USE32 PUBLIC 'CODE'
_TEXT	ENDS
;	COMDAT ??1OutwardEmissionVelocityModuleTemplate@FXParticleSystem@@UAE@XZ
_TEXT	SEGMENT PARA USE32 PUBLIC 'CODE'
_TEXT	ENDS
;	COMDAT ??1ParticleSystemInfo@FXParticleSystem@@UAE@XZ
_TEXT	SEGMENT PARA USE32 PUBLIC 'CODE'
_TEXT	ENDS
;	COMDAT ??1ParticleSystemTemplate@FXParticleSystem@@UAE@XZ
_TEXT	SEGMENT PARA USE32 PUBLIC 'CODE'
_TEXT	ENDS
;	COMDAT ??1PointEmissionVolumeModuleTemplate@FXParticleSystem@@UAE@XZ
_TEXT	SEGMENT PARA USE32 PUBLIC 'CODE'
_TEXT	ENDS
;	COMDAT ??1QuadDrawModuleTemplate@FXParticleSystem@@UAE@XZ
_TEXT	SEGMENT PARA USE32 PUBLIC 'CODE'
_TEXT	ENDS
;	COMDAT ??1RenderObjectDrawModuleInfo@FXParticleSystem@@UAE@XZ
_TEXT	SEGMENT PARA USE32 PUBLIC 'CODE'
_TEXT	ENDS
;	COMDAT ??1RenderObjectDrawModuleTemplate@FXParticleSystem@@UAE@XZ
_TEXT	SEGMENT PARA USE32 PUBLIC 'CODE'
_TEXT	ENDS
;	COMDAT ??1RenderObjectUpdateModuleTemplate@FXParticleSystem@@UAE@XZ
_TEXT	SEGMENT PARA USE32 PUBLIC 'CODE'
_TEXT	ENDS
;	COMDAT ??1SphereEmissionVolumeModuleTemplate@FXParticleSystem@@UAE@XZ
_TEXT	SEGMENT PARA USE32 PUBLIC 'CODE'
_TEXT	ENDS
;	COMDAT ??1SphericalEmissionVelocityModuleTemplate@FXParticleSystem@@UAE@XZ
_TEXT	SEGMENT PARA USE32 PUBLIC 'CODE'
_TEXT	ENDS
;	COMDAT ??1StreakDrawModuleTemplate@FXParticleSystem@@UAE@XZ
_TEXT	SEGMENT PARA USE32 PUBLIC 'CODE'
_TEXT	ENDS
;	COMDAT ??1TerrainCollisionModuleInfo@FXParticleSystem@@UAE@XZ
_TEXT	SEGMENT PARA USE32 PUBLIC 'CODE'
_TEXT	ENDS
;	COMDAT ??1TerrainCollisionModuleTemplate@FXParticleSystem@@UAE@XZ
_TEXT	SEGMENT PARA USE32 PUBLIC 'CODE'
_TEXT	ENDS
;	COMDAT ??4BoxEmissionVolumeInfo@FXParticleSystem@@QAEAAV01@ABV01@@Z
_TEXT	SEGMENT PARA USE32 PUBLIC 'CODE'
_TEXT	ENDS
;	COMDAT ??4BoxEmissionVolumeModuleTemplate@FXParticleSystem@@QAEAAV01@ABV01@@Z
_TEXT	SEGMENT PARA USE32 PUBLIC 'CODE'
_TEXT	ENDS
;	COMDAT ??4CylinderEmissionVolumeInfo@FXParticleSystem@@QAEAAV01@ABV01@@Z
_TEXT	SEGMENT PARA USE32 PUBLIC 'CODE'
_TEXT	ENDS
;	COMDAT ??4CylinderEmissionVolumeModuleTemplate@FXParticleSystem@@QAEAAV01@ABV01@@Z
_TEXT	SEGMENT PARA USE32 PUBLIC 'CODE'
_TEXT	ENDS
;	COMDAT ??4CylindricalEmissionVelocityInfo@FXParticleSystem@@QAEAAV01@ABV01@@Z
_TEXT	SEGMENT PARA USE32 PUBLIC 'CODE'
_TEXT	ENDS
;	COMDAT ??4CylindricalEmissionVelocityModuleTemplate@FXParticleSystem@@QAEAAV01@ABV01@@Z
_TEXT	SEGMENT PARA USE32 PUBLIC 'CODE'
_TEXT	ENDS
;	COMDAT ??4DefaultColorModuleInfo@FXParticleSystem@@QAEAAV01@ABV01@@Z
_TEXT	SEGMENT PARA USE32 PUBLIC 'CODE'
_TEXT	ENDS
;	COMDAT ??4DefaultPhysicsModuleInfo@FXParticleSystem@@QAEAAV01@ABV01@@Z
_TEXT	SEGMENT PARA USE32 PUBLIC 'CODE'
_TEXT	ENDS
;	COMDAT ??4DefaultUpdateModuleInfo@FXParticleSystem@@QAEAAV01@ABV01@@Z
_TEXT	SEGMENT PARA USE32 PUBLIC 'CODE'
_TEXT	ENDS
;	COMDAT ??4EmissionVolumeInfo@FXParticleSystem@@QAEAAV01@ABV01@@Z
_TEXT	SEGMENT PARA USE32 PUBLIC 'CODE'
_TEXT	ENDS
;	COMDAT ??4HemisphericalEmissionVelocityModuleTemplate@FXParticleSystem@@QAEAAV01@ABV01@@Z
_TEXT	SEGMENT PARA USE32 PUBLIC 'CODE'
_TEXT	ENDS
;	COMDAT ??4LifeEventModuleInfo@FXParticleSystem@@QAEAAV01@ABV01@@Z
_TEXT	SEGMENT PARA USE32 PUBLIC 'CODE'
_TEXT	ENDS
;	COMDAT ??4LifeEventModuleTemplate@FXParticleSystem@@QAEAAV01@ABV01@@Z
_TEXT	SEGMENT PARA USE32 PUBLIC 'CODE'
_TEXT	ENDS
;	COMDAT ??4LightningDrawModuleInfo@FXParticleSystem@@QAEAAV01@ABV01@@Z
_TEXT	SEGMENT PARA USE32 PUBLIC 'CODE'
_TEXT	ENDS
;	COMDAT ??4LightningDrawModuleTemplate@FXParticleSystem@@QAEAAV01@ABV01@@Z
_TEXT	SEGMENT PARA USE32 PUBLIC 'CODE'
_TEXT	ENDS
;	COMDAT ??4LightningEmissionModuleTemplate@FXParticleSystem@@QAEAAV01@ABV01@@Z
_TEXT	SEGMENT PARA USE32 PUBLIC 'CODE'
_TEXT	ENDS
;	COMDAT ??4LineEmissionVolumeModuleTemplate@FXParticleSystem@@QAEAAV01@ABV01@@Z
_TEXT	SEGMENT PARA USE32 PUBLIC 'CODE'
_TEXT	ENDS
;	COMDAT ??4OrthoEmissionVelocityInfo@FXParticleSystem@@QAEAAV01@ABV01@@Z
_TEXT	SEGMENT PARA USE32 PUBLIC 'CODE'
_TEXT	ENDS
;	COMDAT ??4OrthoEmissionVelocityModuleTemplate@FXParticleSystem@@QAEAAV01@ABV01@@Z
_TEXT	SEGMENT PARA USE32 PUBLIC 'CODE'
_TEXT	ENDS
;	COMDAT ??4OutwardEmissionVelocityInfo@FXParticleSystem@@QAEAAV01@ABV01@@Z
_TEXT	SEGMENT PARA USE32 PUBLIC 'CODE'
_TEXT	ENDS
;	COMDAT ??4OutwardEmissionVelocityModuleTemplate@FXParticleSystem@@QAEAAV01@ABV01@@Z
_TEXT	SEGMENT PARA USE32 PUBLIC 'CODE'
_TEXT	ENDS
;	COMDAT ??4ParticleSystemInfo@FXParticleSystem@@QAEAAV01@ABV01@@Z
_TEXT	SEGMENT PARA USE32 PUBLIC 'CODE'
_TEXT	ENDS
;	COMDAT ??4ParticleSystemTemplate@FXParticleSystem@@QAEAAV01@ABV01@@Z
_TEXT	SEGMENT PARA USE32 PUBLIC 'CODE'
_TEXT	ENDS
;	COMDAT ??4PointEmissionVolumeModuleTemplate@FXParticleSystem@@QAEAAV01@ABV01@@Z
_TEXT	SEGMENT PARA USE32 PUBLIC 'CODE'
_TEXT	ENDS
;	COMDAT ??4RandomAlphaKeyframe@FXParticleSystem@@QAEAAU01@ABU01@@Z
_TEXT	SEGMENT PARA USE32 PUBLIC 'CODE'
_TEXT	ENDS
;	COMDAT ??4RenderObjectDrawModuleInfo@FXParticleSystem@@QAEAAV01@ABV01@@Z
_TEXT	SEGMENT PARA USE32 PUBLIC 'CODE'
_TEXT	ENDS
;	COMDAT ??4RenderObjectDrawModuleTemplate@FXParticleSystem@@QAEAAV01@ABV01@@Z
_TEXT	SEGMENT PARA USE32 PUBLIC 'CODE'
_TEXT	ENDS
;	COMDAT ??4RenderObjectUpdateModuleInfo@FXParticleSystem@@QAEAAV01@ABV01@@Z
_TEXT	SEGMENT PARA USE32 PUBLIC 'CODE'
_TEXT	ENDS
;	COMDAT ??4RenderObjectUpdateModuleTemplate@FXParticleSystem@@QAEAAV01@ABV01@@Z
_TEXT	SEGMENT PARA USE32 PUBLIC 'CODE'
_TEXT	ENDS
;	COMDAT ??4SphereEmissionVolumeInfo@FXParticleSystem@@QAEAAV01@ABV01@@Z
_TEXT	SEGMENT PARA USE32 PUBLIC 'CODE'
_TEXT	ENDS
;	COMDAT ??4SphereEmissionVolumeModuleTemplate@FXParticleSystem@@QAEAAV01@ABV01@@Z
_TEXT	SEGMENT PARA USE32 PUBLIC 'CODE'
_TEXT	ENDS
;	COMDAT ??4SphericalEmissionVelocityInfo@FXParticleSystem@@QAEAAV01@ABV01@@Z
_TEXT	SEGMENT PARA USE32 PUBLIC 'CODE'
_TEXT	ENDS
;	COMDAT ??4SphericalEmissionVelocityModuleTemplate@FXParticleSystem@@QAEAAV01@ABV01@@Z
_TEXT	SEGMENT PARA USE32 PUBLIC 'CODE'
_TEXT	ENDS
;	COMDAT ??4TerrainCollisionModuleInfo@FXParticleSystem@@QAEAAV01@ABV01@@Z
_TEXT	SEGMENT PARA USE32 PUBLIC 'CODE'
_TEXT	ENDS
;	COMDAT ??4TerrainCollisionModuleTemplate@FXParticleSystem@@QAEAAV01@ABV01@@Z
_TEXT	SEGMENT PARA USE32 PUBLIC 'CODE'
_TEXT	ENDS
;	COMDAT ??4WindModuleInfo@FXParticleSystem@@QAEAAV01@ABV01@@Z
_TEXT	SEGMENT PARA USE32 PUBLIC 'CODE'
_TEXT	ENDS
;	COMDAT ?DoXfer@ButterflyDrawModuleInfo@FXParticleSystem@@UAEXAAVXfer@@@Z
_TEXT	SEGMENT PARA USE32 PUBLIC 'CODE'
_TEXT	ENDS
;	COMDAT ?DoXfer@DefaultAlphaModuleInfo@FXParticleSystem@@UAEXAAVXfer@@@Z
_TEXT	SEGMENT PARA USE32 PUBLIC 'CODE'
_TEXT	ENDS
;	COMDAT ?DoXfer@DefaultColorModuleInfo@FXParticleSystem@@UAEXAAVXfer@@@Z
_TEXT	SEGMENT PARA USE32 PUBLIC 'CODE'
_TEXT	ENDS
;	COMDAT ?DoXfer@DefaultDrawModuleInfo@FXParticleSystem@@UAEXAAVXfer@@@Z
_TEXT	SEGMENT PARA USE32 PUBLIC 'CODE'
_TEXT	ENDS
;	COMDAT ?DoXfer@DefaultPhysicsModuleInfo@FXParticleSystem@@UAEXAAVXfer@@@Z
_TEXT	SEGMENT PARA USE32 PUBLIC 'CODE'
_TEXT	ENDS
;	COMDAT ?DoXfer@DefaultUpdateModuleInfo@FXParticleSystem@@UAEXAAVXfer@@@Z
_TEXT	SEGMENT PARA USE32 PUBLIC 'CODE'
_TEXT	ENDS
;	COMDAT ?DoXfer@LifeEventModuleInfo@FXParticleSystem@@UAEXAAVXfer@@@Z
_TEXT	SEGMENT PARA USE32 PUBLIC 'CODE'
_TEXT	ENDS
;	COMDAT ?DoXfer@LightningDrawModuleInfo@FXParticleSystem@@UAEXAAVXfer@@@Z
_TEXT	SEGMENT PARA USE32 PUBLIC 'CODE'
_TEXT	ENDS
;	COMDAT ?DoXfer@ParticleSystemInfo@FXParticleSystem@@UAEXAAVXfer@@@Z
_TEXT	SEGMENT PARA USE32 PUBLIC 'CODE'
_TEXT	ENDS
;	COMDAT ?DoXfer@QuadDrawModuleInfo@FXParticleSystem@@UAEXAAVXfer@@@Z
_TEXT	SEGMENT PARA USE32 PUBLIC 'CODE'
_TEXT	ENDS
;	COMDAT ?DoXfer@RenderObjectDrawModuleInfo@FXParticleSystem@@UAEXAAVXfer@@@Z
_TEXT	SEGMENT PARA USE32 PUBLIC 'CODE'
_TEXT	ENDS
;	COMDAT ?DoXfer@RenderObjectUpdateModuleInfo@FXParticleSystem@@UAEXAAVXfer@@@Z
_TEXT	SEGMENT PARA USE32 PUBLIC 'CODE'
_TEXT	ENDS
;	COMDAT ?DoXfer@StreakDrawModuleInfo@FXParticleSystem@@UAEXAAVXfer@@@Z
_TEXT	SEGMENT PARA USE32 PUBLIC 'CODE'
_TEXT	ENDS
;	COMDAT ?DoXfer@TerrainCollisionModuleInfo@FXParticleSystem@@UAEXAAVXfer@@@Z
_TEXT	SEGMENT PARA USE32 PUBLIC 'CODE'
_TEXT	ENDS
;	COMDAT ?DoXfer@WindModuleInfo@FXParticleSystem@@UAEXAAVXfer@@@Z
_TEXT	SEGMENT PARA USE32 PUBLIC 'CODE'
_TEXT	ENDS
;	COMDAT ?createSlaveSystem@ParticleSystemTemplate@FXParticleSystem@@QBE?AV?$TrackingPtr@VParticleSystem@FXParticleSystem@@@@_N@Z
_TEXT	SEGMENT PARA USE32 PUBLIC 'CODE'
_TEXT	ENDS
;	COMDAT ?getEventFX@LifeEventModuleInfo@FXParticleSystem@@QAEPBVFXList@@XZ
_TEXT	SEGMENT PARA USE32 PUBLIC 'CODE'
_TEXT	ENDS
;	COMDAT ?getEventFX@TerrainCollisionModuleInfo@FXParticleSystem@@QAEPBVFXList@@XZ
_TEXT	SEGMENT PARA USE32 PUBLIC 'CODE'
_TEXT	ENDS
;	COMDAT ?parse@BoxEmissionVolumeModuleTemplate@FXParticleSystem@@QAEXPAVINI@@@Z
_TEXT	SEGMENT PARA USE32 PUBLIC 'CODE'
_TEXT	ENDS
;	COMDAT ?parse@ButterflyDrawModuleTemplate@FXParticleSystem@@QAEXPAVINI@@@Z
_TEXT	SEGMENT PARA USE32 PUBLIC 'CODE'
_TEXT	ENDS
;	COMDAT ?parse@CylinderEmissionVolumeModuleTemplate@FXParticleSystem@@QAEXPAVINI@@@Z
_TEXT	SEGMENT PARA USE32 PUBLIC 'CODE'
_TEXT	ENDS
;	COMDAT ?parse@CylindricalEmissionVelocityModuleTemplate@FXParticleSystem@@QAEXPAVINI@@@Z
_TEXT	SEGMENT PARA USE32 PUBLIC 'CODE'
_TEXT	ENDS
;	COMDAT ?parse@LifeEventModuleTemplate@FXParticleSystem@@QAEXPAVINI@@@Z
_TEXT	SEGMENT PARA USE32 PUBLIC 'CODE'
_TEXT	ENDS
;	COMDAT ?parse@LightningDrawModuleTemplate@FXParticleSystem@@QAEXPAVINI@@@Z
_TEXT	SEGMENT PARA USE32 PUBLIC 'CODE'
_TEXT	ENDS
;	COMDAT ?parse@LightningEmissionModuleTemplate@FXParticleSystem@@QAEXPAVINI@@@Z
_TEXT	SEGMENT PARA USE32 PUBLIC 'CODE'
_TEXT	ENDS
;	COMDAT ?parse@LineEmissionVolumeModuleTemplate@FXParticleSystem@@QAEXPAVINI@@@Z
_TEXT	SEGMENT PARA USE32 PUBLIC 'CODE'
_TEXT	ENDS
;	COMDAT ?parse@OrthoEmissionVelocityModuleTemplate@FXParticleSystem@@QAEXPAVINI@@@Z
_TEXT	SEGMENT PARA USE32 PUBLIC 'CODE'
_TEXT	ENDS
;	COMDAT ?parse@OutwardEmissionVelocityModuleTemplate@FXParticleSystem@@QAEXPAVINI@@@Z
_TEXT	SEGMENT PARA USE32 PUBLIC 'CODE'
_TEXT	ENDS
;	COMDAT ?parse@ParticleSystemTemplate@FXParticleSystem@@SAXPAVINI@@PAX1PBX@Z
_TEXT	SEGMENT PARA USE32 PUBLIC 'CODE'
_TEXT	ENDS
;	COMDAT ?parse@PointEmissionVolumeModuleTemplate@FXParticleSystem@@QAEXPAVINI@@@Z
_TEXT	SEGMENT PARA USE32 PUBLIC 'CODE'
_TEXT	ENDS
;	COMDAT ?parse@QuadDrawModuleTemplate@FXParticleSystem@@QAEXPAVINI@@@Z
_TEXT	SEGMENT PARA USE32 PUBLIC 'CODE'
_TEXT	ENDS
;	COMDAT ?parse@RenderObjectDrawModuleTemplate@FXParticleSystem@@QAEXPAVINI@@@Z
_TEXT	SEGMENT PARA USE32 PUBLIC 'CODE'
_TEXT	ENDS
;	COMDAT ?parse@RenderObjectUpdateModuleTemplate@FXParticleSystem@@QAEXPAVINI@@@Z
_TEXT	SEGMENT PARA USE32 PUBLIC 'CODE'
_TEXT	ENDS
;	COMDAT ?parse@SphereEmissionVolumeModuleTemplate@FXParticleSystem@@QAEXPAVINI@@@Z
_TEXT	SEGMENT PARA USE32 PUBLIC 'CODE'
_TEXT	ENDS
;	COMDAT ?parse@SphericalEmissionVelocityModuleTemplate@FXParticleSystem@@QAEXPAVINI@@@Z
_TEXT	SEGMENT PARA USE32 PUBLIC 'CODE'
_TEXT	ENDS
;	COMDAT ?parse@StreakDrawModuleTemplate@FXParticleSystem@@QAEXPAVINI@@@Z
_TEXT	SEGMENT PARA USE32 PUBLIC 'CODE'
_TEXT	ENDS
;	COMDAT ?parse@TerrainCollisionModuleTemplate@FXParticleSystem@@QAEXPAVINI@@@Z
_TEXT	SEGMENT PARA USE32 PUBLIC 'CODE'
_TEXT	ENDS
;	COMDAT ?parseEventFXListName@LifeEventModuleTemplate@FXParticleSystem@@SAXPAVINI@@PAX1PBX@Z
_TEXT	SEGMENT PARA USE32 PUBLIC 'CODE'
_TEXT	ENDS
;	COMDAT ?parseEventFXListName@TerrainCollisionModuleTemplate@FXParticleSystem@@SAXPAVINI@@PAX1PBX@Z
_TEXT	SEGMENT PARA USE32 PUBLIC 'CODE'
_TEXT	ENDS
;	COMDAT ?tintAllColors@DefaultColorModuleInfo@FXParticleSystem@@QAEXH@Z
_TEXT	SEGMENT PARA USE32 PUBLIC 'CODE'
_TEXT	ENDS
;	COMDAT ?writeINI@BoxEmissionVolumeModuleTemplate@FXParticleSystem@@UBEXAAVFile@@I@Z
_TEXT	SEGMENT PARA USE32 PUBLIC 'CODE'
_TEXT	ENDS
;	COMDAT ?writeINI@ButterflyDrawModuleTemplate@FXParticleSystem@@UBEXAAVFile@@I@Z
_TEXT	SEGMENT PARA USE32 PUBLIC 'CODE'
_TEXT	ENDS
;	COMDAT ?writeINI@CylinderEmissionVolumeModuleTemplate@FXParticleSystem@@UBEXAAVFile@@I@Z
_TEXT	SEGMENT PARA USE32 PUBLIC 'CODE'
_TEXT	ENDS
;	COMDAT ?writeINI@CylindricalEmissionVelocityModuleTemplate@FXParticleSystem@@UBEXAAVFile@@I@Z
_TEXT	SEGMENT PARA USE32 PUBLIC 'CODE'
_TEXT	ENDS
;	COMDAT ?writeINI@LifeEventModuleTemplate@FXParticleSystem@@UBEXAAVFile@@I@Z
_TEXT	SEGMENT PARA USE32 PUBLIC 'CODE'
_TEXT	ENDS
;	COMDAT ?writeINI@LightningDrawModuleTemplate@FXParticleSystem@@UBEXAAVFile@@I@Z
_TEXT	SEGMENT PARA USE32 PUBLIC 'CODE'
_TEXT	ENDS
;	COMDAT ?writeINI@LightningEmissionModuleTemplate@FXParticleSystem@@UBEXAAVFile@@I@Z
_TEXT	SEGMENT PARA USE32 PUBLIC 'CODE'
_TEXT	ENDS
;	COMDAT ?writeINI@LineEmissionVolumeModuleTemplate@FXParticleSystem@@UBEXAAVFile@@I@Z
_TEXT	SEGMENT PARA USE32 PUBLIC 'CODE'
_TEXT	ENDS
;	COMDAT ?writeINI@OrthoEmissionVelocityModuleTemplate@FXParticleSystem@@UBEXAAVFile@@I@Z
_TEXT	SEGMENT PARA USE32 PUBLIC 'CODE'
_TEXT	ENDS
;	COMDAT ?writeINI@OutwardEmissionVelocityModuleTemplate@FXParticleSystem@@UBEXAAVFile@@I@Z
_TEXT	SEGMENT PARA USE32 PUBLIC 'CODE'
_TEXT	ENDS
;	COMDAT ?writeINI@ParticleSystemTemplate@FXParticleSystem@@QBEXAAVFile@@I@Z
_TEXT	SEGMENT PARA USE32 PUBLIC 'CODE'
_TEXT	ENDS
;	COMDAT ?writeINI@PointEmissionVolumeModuleTemplate@FXParticleSystem@@UBEXAAVFile@@I@Z
_TEXT	SEGMENT PARA USE32 PUBLIC 'CODE'
_TEXT	ENDS
;	COMDAT ?writeINI@QuadDrawModuleTemplate@FXParticleSystem@@UBEXAAVFile@@I@Z
_TEXT	SEGMENT PARA USE32 PUBLIC 'CODE'
_TEXT	ENDS
;	COMDAT ?writeINI@RenderObjectDrawModuleTemplate@FXParticleSystem@@UBEXAAVFile@@I@Z
_TEXT	SEGMENT PARA USE32 PUBLIC 'CODE'
_TEXT	ENDS
;	COMDAT ?writeINI@RenderObjectUpdateModuleTemplate@FXParticleSystem@@UBEXAAVFile@@I@Z
_TEXT	SEGMENT PARA USE32 PUBLIC 'CODE'
_TEXT	ENDS
;	COMDAT ?writeINI@SphereEmissionVolumeModuleTemplate@FXParticleSystem@@UBEXAAVFile@@I@Z
_TEXT	SEGMENT PARA USE32 PUBLIC 'CODE'
_TEXT	ENDS
;	COMDAT ?writeINI@SphericalEmissionVelocityModuleTemplate@FXParticleSystem@@UBEXAAVFile@@I@Z
_TEXT	SEGMENT PARA USE32 PUBLIC 'CODE'
_TEXT	ENDS
;	COMDAT ?writeINI@StreakDrawModuleTemplate@FXParticleSystem@@UBEXAAVFile@@I@Z
_TEXT	SEGMENT PARA USE32 PUBLIC 'CODE'
_TEXT	ENDS
;	COMDAT ?writeINI@TerrainCollisionModuleTemplate@FXParticleSystem@@UBEXAAVFile@@I@Z
_TEXT	SEGMENT PARA USE32 PUBLIC 'CODE'
_TEXT	ENDS
;	COMDAT ??_EButterflyDrawModuleTemplate@FXParticleSystem@@W7AEPAXI@Z
_TEXT	SEGMENT PARA USE32 PUBLIC 'CODE'
_TEXT	ENDS
;	COMDAT ??_EQuadDrawModuleTemplate@FXParticleSystem@@W7AEPAXI@Z
_TEXT	SEGMENT PARA USE32 PUBLIC 'CODE'
_TEXT	ENDS
;	COMDAT ??_7TerrainCollisionModuleInfo@FXParticleSystem@@6B@
CONST	SEGMENT DWORD USE32 PUBLIC 'CONST'
CONST	ENDS
;	COMDAT ??_7LineEmissionVolumeInfo@FXParticleSystem@@6B@
CONST	SEGMENT DWORD USE32 PUBLIC 'CONST'
CONST	ENDS
;	COMDAT ??_7ButterflyDrawModuleTemplate@FXParticleSystem@@6B@
CONST	SEGMENT DWORD USE32 PUBLIC 'CONST'
CONST	ENDS
;	COMDAT ??_7ButterflyDrawModuleTemplate@FXParticleSystem@@6BModuleTemplate@1@@
CONST	SEGMENT DWORD USE32 PUBLIC 'CONST'
CONST	ENDS
;	COMDAT ??_7ParticleSystemInfo@FXParticleSystem@@6B@
CONST	SEGMENT DWORD USE32 PUBLIC 'CONST'
CONST	ENDS
;	COMDAT ??_7SphereEmissionVolumeInfo@FXParticleSystem@@6B@
CONST	SEGMENT DWORD USE32 PUBLIC 'CONST'
CONST	ENDS
;	COMDAT ??_7RenderObjectUpdateModuleTemplate@FXParticleSystem@@6B@
CONST	SEGMENT DWORD USE32 PUBLIC 'CONST'
CONST	ENDS
;	COMDAT ??_7BoxEmissionVolumeModuleTemplate@FXParticleSystem@@6B@
CONST	SEGMENT DWORD USE32 PUBLIC 'CONST'
CONST	ENDS
;	COMDAT ??_7ButterflyDrawModuleTemplate@FXParticleSystem@@6B?$CategoryModuleInfo@$05@1@@
CONST	SEGMENT DWORD USE32 PUBLIC 'CONST'
CONST	ENDS
;	COMDAT ??_7RenderObjectDrawModuleInfo@FXParticleSystem@@6B@
CONST	SEGMENT DWORD USE32 PUBLIC 'CONST'
CONST	ENDS
;	COMDAT ??_7SphericalEmissionVelocityModuleTemplate@FXParticleSystem@@6B@
CONST	SEGMENT DWORD USE32 PUBLIC 'CONST'
CONST	ENDS
;	COMDAT ??_7QuadDrawModuleTemplate@FXParticleSystem@@6B@
CONST	SEGMENT DWORD USE32 PUBLIC 'CONST'
CONST	ENDS
;	COMDAT ??_7CylindricalEmissionVelocityInfo@FXParticleSystem@@6B@
CONST	SEGMENT DWORD USE32 PUBLIC 'CONST'
CONST	ENDS
;	COMDAT ??_7TerrainCollisionModuleTemplate@FXParticleSystem@@6B@
CONST	SEGMENT DWORD USE32 PUBLIC 'CONST'
CONST	ENDS
;	COMDAT ??_7LightningDrawModuleInfo@FXParticleSystem@@6B@
CONST	SEGMENT DWORD USE32 PUBLIC 'CONST'
CONST	ENDS
;	COMDAT ??_7OutwardEmissionVelocityInfo@FXParticleSystem@@6B@
CONST	SEGMENT DWORD USE32 PUBLIC 'CONST'
CONST	ENDS
;	COMDAT ??_7RenderObjectDrawModuleTemplate@FXParticleSystem@@6B@
CONST	SEGMENT DWORD USE32 PUBLIC 'CONST'
CONST	ENDS
;	COMDAT ??_7CylindricalEmissionVelocityModuleTemplate@FXParticleSystem@@6B@
CONST	SEGMENT DWORD USE32 PUBLIC 'CONST'
CONST	ENDS
;	COMDAT ??_7QuadDrawModuleTemplate@FXParticleSystem@@6B?$CategoryModuleInfo@$05@1@@
CONST	SEGMENT DWORD USE32 PUBLIC 'CONST'
CONST	ENDS
;	COMDAT ??_7LightningDrawModuleTemplate@FXParticleSystem@@6B@
CONST	SEGMENT DWORD USE32 PUBLIC 'CONST'
CONST	ENDS
;	COMDAT ??_7OutwardEmissionVelocityModuleTemplate@FXParticleSystem@@6B@
CONST	SEGMENT DWORD USE32 PUBLIC 'CONST'
CONST	ENDS
;	COMDAT ??_7StreakDrawModuleTemplate@FXParticleSystem@@6B@
CONST	SEGMENT DWORD USE32 PUBLIC 'CONST'
CONST	ENDS
;	COMDAT ??_7DefaultUpdateModuleInfo@FXParticleSystem@@6B@
CONST	SEGMENT DWORD USE32 PUBLIC 'CONST'
CONST	ENDS
;	COMDAT ??_7QuadDrawModuleTemplate@FXParticleSystem@@6BModuleTemplate@1@@
CONST	SEGMENT DWORD USE32 PUBLIC 'CONST'
CONST	ENDS
;	COMDAT ??_7RenderObjectUpdateModuleInfo@FXParticleSystem@@6B@
CONST	SEGMENT DWORD USE32 PUBLIC 'CONST'
CONST	ENDS
;	COMDAT ??_7DefaultColorModuleInfo@FXParticleSystem@@6B@
CONST	SEGMENT DWORD USE32 PUBLIC 'CONST'
CONST	ENDS
;	COMDAT ??_7LifeEventModuleInfo@FXParticleSystem@@6B@
CONST	SEGMENT DWORD USE32 PUBLIC 'CONST'
CONST	ENDS
;	COMDAT ??_7OrthoEmissionVelocityModuleTemplate@FXParticleSystem@@6B@
CONST	SEGMENT DWORD USE32 PUBLIC 'CONST'
CONST	ENDS
;	COMDAT ??_7HemisphericalEmissionVelocityModuleTemplate@FXParticleSystem@@6B@
CONST	SEGMENT DWORD USE32 PUBLIC 'CONST'
CONST	ENDS
;	COMDAT ??_7PointEmissionVolumeModuleTemplate@FXParticleSystem@@6B@
CONST	SEGMENT DWORD USE32 PUBLIC 'CONST'
CONST	ENDS
;	COMDAT ??_7SphericalEmissionVelocityInfo@FXParticleSystem@@6B@
CONST	SEGMENT DWORD USE32 PUBLIC 'CONST'
CONST	ENDS
;	COMDAT ??_7ParticleSystemTemplate@FXParticleSystem@@6B@
CONST	SEGMENT DWORD USE32 PUBLIC 'CONST'
CONST	ENDS
;	COMDAT ??_7LifeEventModuleTemplate@FXParticleSystem@@6B@
CONST	SEGMENT DWORD USE32 PUBLIC 'CONST'
CONST	ENDS
;	COMDAT ??_7SphereEmissionVolumeModuleTemplate@FXParticleSystem@@6B@
CONST	SEGMENT DWORD USE32 PUBLIC 'CONST'
CONST	ENDS
;	COMDAT ??_7LightningEmissionInfo@FXParticleSystem@@6B@
CONST	SEGMENT DWORD USE32 PUBLIC 'CONST'
CONST	ENDS
;	COMDAT ??_7LineEmissionVolumeModuleTemplate@FXParticleSystem@@6B@
CONST	SEGMENT DWORD USE32 PUBLIC 'CONST'
CONST	ENDS
;	COMDAT ??_7CylinderEmissionVolumeModuleTemplate@FXParticleSystem@@6B@
CONST	SEGMENT DWORD USE32 PUBLIC 'CONST'
CONST	ENDS
;	COMDAT ??_7LightningEmissionModuleTemplate@FXParticleSystem@@6B@
CONST	SEGMENT DWORD USE32 PUBLIC 'CONST'
CONST	ENDS
;	COMDAT ??_7DefaultPhysicsModuleInfo@FXParticleSystem@@6B@
CONST	SEGMENT DWORD USE32 PUBLIC 'CONST'
CONST	ENDS
;	COMDAT ??_7WindModuleInfo@FXParticleSystem@@6B@
CONST	SEGMENT DWORD USE32 PUBLIC 'CONST'
CONST	ENDS
;	COMDAT ??_7DefaultAlphaModuleInfo@FXParticleSystem@@6B@
CONST	SEGMENT DWORD USE32 PUBLIC 'CONST'
CONST	ENDS
;	COMDAT ??_7OrthoEmissionVelocityInfo@FXParticleSystem@@6B@
CONST	SEGMENT DWORD USE32 PUBLIC 'CONST'
CONST	ENDS
FLAT	GROUP _DATA, CONST, _BSS
	ASSUME	CS: FLAT, DS: FLAT, SS: FLAT
endif

INCLUDELIB LIBC
INCLUDELIB OLDNAMES

PUBLIC	??0?$ConcreteModuleClass@V?$DefaultModuleTag@$0A@@FXParticleSystem@@@FXParticleSystem@@AAE@XZ ; FXParticleSystem::ConcreteModuleClass<FXParticleSystem::DefaultModuleTag<0> >::ConcreteModuleClass<FXParticleSystem::DefaultModuleTag<0> >
; Function compile flags: /Ogty
; File z:\home\wacket\projects\bfme-1-source-code\src\game\fx_particle_system_bulk.cpp
;	COMDAT ??0?$ConcreteModuleClass@V?$DefaultModuleTag@$0A@@FXParticleSystem@@@FXParticleSystem@@AAE@XZ
_TEXT	SEGMENT
_this$ = -4						; size = 4
??0?$ConcreteModuleClass@V?$DefaultModuleTag@$0A@@FXParticleSystem@@@FXParticleSystem@@AAE@XZ PROC NEAR ; FXParticleSystem::ConcreteModuleClass<FXParticleSystem::DefaultModuleTag<0> >::ConcreteModuleClass<FXParticleSystem::DefaultModuleTag<0> >, COMDAT
; _this$ = ecx

; 8    :     __asm {
; 9    :         __emit 0x8b

	DB	-117					; ffffff8bH

; 10   :         __emit 0x15

	DB	21					; 00000015H

; 11   :         __emit 0xe0

	DB	-32					; ffffffe0H

; 12   :         __emit 0x6c

	DB	108					; 0000006cH

; 13   :         __emit 0x2f

	DB	47					; 0000002fH

; 14   :         __emit 0x01

	DB	1

; 15   :         __emit 0x8b

	DB	-117					; ffffff8bH

; 16   :         __emit 0x12

	DB	18					; 00000012H

; 17   :         __emit 0x8b

	DB	-117					; ffffff8bH

; 18   :         __emit 0xc1

	DB	-63					; ffffffc1H

; 19   :         __emit 0x8b

	DB	-117					; ffffff8bH

; 20   :         __emit 0x0d

	DB	13					; 0000000dH

; 21   :         __emit 0xe4

	DB	-28					; ffffffe4H

; 22   :         __emit 0x6c

	DB	108					; 0000006cH

; 23   :         __emit 0x2f

	DB	47					; 0000002fH

; 24   :         __emit 0x01

	DB	1

; 25   :         __emit 0x8b

	DB	-117					; ffffff8bH

; 26   :         __emit 0x09

	DB	9

; 27   :         __emit 0xa3

	DB	-93					; ffffffa3H

; 28   :         __emit 0xc4

	DB	-60					; ffffffc4H

; 29   :         __emit 0x64

	DB	100					; 00000064H

; 30   :         __emit 0x2f

	DB	47					; 0000002fH

; 31   :         __emit 0x01

	DB	1

; 32   :         __emit 0xc7

	DB	-57					; ffffffc7H

; 33   :         __emit 0x00

	DB	0

; 34   :         __emit 0x44

	DB	68					; 00000044H

; 35   :         __emit 0x08

	DB	8

; 36   :         __emit 0x11

	DB	17					; 00000011H

; 37   :         __emit 0x01

	DB	1

; 38   :         __emit 0x89

	DB	-119					; ffffff89H

; 39   :         __emit 0x50

	DB	80					; 00000050H

; 40   :         __emit 0x04

	DB	4

; 41   :         __emit 0x89

	DB	-119					; ffffff89H

; 42   :         __emit 0x48

	DB	72					; 00000048H

; 43   :         __emit 0x08

	DB	8

; 44   :         __emit 0x8b

	DB	-117					; ffffff8bH

; 45   :         __emit 0x0d

	DB	13					; 0000000dH

; 46   :         __emit 0xe8

	DB	-24					; ffffffe8H

; 47   :         __emit 0x64

	DB	100					; 00000064H

; 48   :         __emit 0x2f

	DB	47					; 0000002fH

; 49   :         __emit 0x01

	DB	1

; 50   :         __emit 0x89

	DB	-119					; ffffff89H

; 51   :         __emit 0x48

	DB	72					; 00000048H

; 52   :         __emit 0x0c

	DB	12					; 0000000cH

; 53   :         __emit 0xa3

	DB	-93					; ffffffa3H

; 54   :         __emit 0xe8

	DB	-24					; ffffffe8H

; 55   :         __emit 0x64

	DB	100					; 00000064H

; 56   :         __emit 0x2f

	DB	47					; 0000002fH

; 57   :         __emit 0x01

	DB	1

; 58   :         __emit 0xc7

	DB	-57					; ffffffc7H

; 59   :         __emit 0x00

	DB	0

; 60   :         __emit 0xb8

	DB	-72					; ffffffb8H

; 61   :         __emit 0x13

	DB	19					; 00000013H

; 62   :         __emit 0x11

	DB	17					; 00000011H

; 63   :         __emit 0x01

	DB	1

; 64   :         __emit 0xc3

	DB	-61					; ffffffc3H

; 65   :     }
; 66   : }

	mov	eax, DWORD PTR _this$[ebp]
??0?$ConcreteModuleClass@V?$DefaultModuleTag@$0A@@FXParticleSystem@@@FXParticleSystem@@AAE@XZ ENDP ; FXParticleSystem::ConcreteModuleClass<FXParticleSystem::DefaultModuleTag<0> >::ConcreteModuleClass<FXParticleSystem::DefaultModuleTag<0> >
_TEXT	ENDS
PUBLIC	??1?$ConcreteModuleClass@V?$DefaultModuleTag@$0A@@FXParticleSystem@@@FXParticleSystem@@QAE@XZ ; FXParticleSystem::ConcreteModuleClass<FXParticleSystem::DefaultModuleTag<0> >::~ConcreteModuleClass<FXParticleSystem::DefaultModuleTag<0> >
; Function compile flags: /Ogty
;	COMDAT ??1?$ConcreteModuleClass@V?$DefaultModuleTag@$0A@@FXParticleSystem@@@FXParticleSystem@@QAE@XZ
_TEXT	SEGMENT
??1?$ConcreteModuleClass@V?$DefaultModuleTag@$0A@@FXParticleSystem@@@FXParticleSystem@@QAE@XZ PROC NEAR ; FXParticleSystem::ConcreteModuleClass<FXParticleSystem::DefaultModuleTag<0> >::~ConcreteModuleClass<FXParticleSystem::DefaultModuleTag<0> >, COMDAT
; _this$ = ecx

; 71   :     __asm {
; 72   :         __emit 0xc7

	DB	-57					; ffffffc7H

; 73   :         __emit 0x01

	DB	1

; 74   :         __emit 0x44

	DB	68					; 00000044H

; 75   :         __emit 0x08

	DB	8

; 76   :         __emit 0x11

	DB	17					; 00000011H

; 77   :         __emit 0x01

	DB	1

; 78   :         __emit 0xc3

	DB	-61					; ffffffc3H
??1?$ConcreteModuleClass@V?$DefaultModuleTag@$0A@@FXParticleSystem@@@FXParticleSystem@@QAE@XZ ENDP ; FXParticleSystem::ConcreteModuleClass<FXParticleSystem::DefaultModuleTag<0> >::~ConcreteModuleClass<FXParticleSystem::DefaultModuleTag<0> >
_TEXT	ENDS
PUBLIC	?getClass@?$ConcreteModuleTemplate@V?$DefaultModuleTag@$0A@@FXParticleSystem@@@FXParticleSystem@@QBEABV?$ConcreteModuleClass@V?$DefaultModuleTag@$0A@@FXParticleSystem@@@2@XZ ; FXParticleSystem::ConcreteModuleTemplate<FXParticleSystem::DefaultModuleTag<0> >::getClass
; Function compile flags: /Ogty
;	COMDAT ?getClass@?$ConcreteModuleTemplate@V?$DefaultModuleTag@$0A@@FXParticleSystem@@@FXParticleSystem@@QBEABV?$ConcreteModuleClass@V?$DefaultModuleTag@$0A@@FXParticleSystem@@@2@XZ
_TEXT	SEGMENT
?getClass@?$ConcreteModuleTemplate@V?$DefaultModuleTag@$0A@@FXParticleSystem@@@FXParticleSystem@@QBEABV?$ConcreteModuleClass@V?$DefaultModuleTag@$0A@@FXParticleSystem@@@2@XZ PROC NEAR ; FXParticleSystem::ConcreteModuleTemplate<FXParticleSystem::DefaultModuleTag<0> >::getClass, COMDAT
; _this$ = ecx

; 85   :     __asm {
; 86   :         __emit 0xe9

	DB	-23					; ffffffe9H

; 87   :         __emit 0x6a

	DB	106					; 0000006aH

; 88   :         __emit 0x76

	DB	118					; 00000076H

; 89   :         __emit 0xa4

	DB	-92					; ffffffa4H

; 90   :         __emit 0xff

	DB	-1
?getClass@?$ConcreteModuleTemplate@V?$DefaultModuleTag@$0A@@FXParticleSystem@@@FXParticleSystem@@QBEABV?$ConcreteModuleClass@V?$DefaultModuleTag@$0A@@FXParticleSystem@@@2@XZ ENDP ; FXParticleSystem::ConcreteModuleTemplate<FXParticleSystem::DefaultModuleTag<0> >::getClass
_TEXT	ENDS
PUBLIC	?getInstance@?$ConcreteModuleClass@V?$DefaultModuleTag@$0A@@FXParticleSystem@@@FXParticleSystem@@SAABV12@XZ ; FXParticleSystem::ConcreteModuleClass<FXParticleSystem::DefaultModuleTag<0> >::getInstance
; Function compile flags: /Ogty
;	COMDAT ?getInstance@?$ConcreteModuleClass@V?$DefaultModuleTag@$0A@@FXParticleSystem@@@FXParticleSystem@@SAABV12@XZ
_TEXT	SEGMENT
?getInstance@?$ConcreteModuleClass@V?$DefaultModuleTag@$0A@@FXParticleSystem@@@FXParticleSystem@@SAABV12@XZ PROC NEAR ; FXParticleSystem::ConcreteModuleClass<FXParticleSystem::DefaultModuleTag<0> >::getInstance, COMDAT

; 97   :     __asm {
; 98   :         __emit 0x8a

	DB	-118					; ffffff8aH

; 99   :         __emit 0x0d

	DB	13					; 0000000dH

; 100  :         __emit 0x60

	DB	96					; 00000060H

; 101  :         __emit 0x6a

	DB	106					; 0000006aH

; 102  :         __emit 0x2f

	DB	47					; 0000002fH

; 103  :         __emit 0x01

	DB	1

; 104  :         __emit 0xb8

	DB	-72					; ffffffb8H

; 105  :         __emit 0x01

	DB	1

; 106  :         __emit 0x00

	DB	0

; 107  :         __emit 0x00

	DB	0

; 108  :         __emit 0x00

	DB	0

; 109  :         __emit 0x84

	DB	-124					; ffffff84H

; 110  :         __emit 0xc8

	DB	-56					; ffffffc8H

; 111  :         __emit 0x75

	DB	117					; 00000075H

; 112  :         __emit 0x5a

	DB	90					; 0000005aH

; 113  :         __emit 0x8b

	DB	-117					; ffffff8bH

; 114  :         __emit 0x15

	DB	21					; 00000015H

; 115  :         __emit 0x60

	DB	96					; 00000060H

; 116  :         __emit 0x6a

	DB	106					; 0000006aH

; 117  :         __emit 0x2f

	DB	47					; 0000002fH

; 118  :         __emit 0x01

	DB	1

; 119  :         __emit 0x8b

	DB	-117					; ffffff8bH

; 120  :         __emit 0x0d

	DB	13					; 0000000dH

; 121  :         __emit 0xe0

	DB	-32					; ffffffe0H

; 122  :         __emit 0x6c

	DB	108					; 0000006cH

; 123  :         __emit 0x2f

	DB	47					; 0000002fH

; 124  :         __emit 0x01

	DB	1

; 125  :         __emit 0x8b

	DB	-117					; ffffff8bH

; 126  :         __emit 0x09

	DB	9

; 127  :         __emit 0x0b

	DB	11					; 0000000bH

; 128  :         __emit 0xd0

	DB	-48					; ffffffd0H

; 129  :         __emit 0xa1

	DB	-95					; ffffffa1H

; 130  :         __emit 0xe4

	DB	-28					; ffffffe4H

; 131  :         __emit 0x6c

	DB	108					; 0000006cH

; 132  :         __emit 0x2f

	DB	47					; 0000002fH

; 133  :         __emit 0x01

	DB	1

; 134  :         __emit 0x8b

	DB	-117					; ffffff8bH

; 135  :         __emit 0x00

	DB	0

; 136  :         __emit 0x89

	DB	-119					; ffffff89H

; 137  :         __emit 0x15

	DB	21					; 00000015H

; 138  :         __emit 0x60

	DB	96					; 00000060H

; 139  :         __emit 0x6a

	DB	106					; 0000006aH

; 140  :         __emit 0x2f

	DB	47					; 0000002fH

; 141  :         __emit 0x01

	DB	1

; 142  :         __emit 0xba

	DB	-70					; ffffffbaH

; 143  :         __emit 0x4c

	DB	76					; 0000004cH

; 144  :         __emit 0x6a

	DB	106					; 0000006aH

; 145  :         __emit 0x2f

	DB	47					; 0000002fH

; 146  :         __emit 0x01

	DB	1

; 147  :         __emit 0xa3

	DB	-93					; ffffffa3H

; 148  :         __emit 0x54

	DB	84					; 00000054H

; 149  :         __emit 0x6a

	DB	106					; 0000006aH

; 150  :         __emit 0x2f

	DB	47					; 0000002fH

; 151  :         __emit 0x01

	DB	1

; 152  :         __emit 0xa1

	DB	-95					; ffffffa1H

; 153  :         __emit 0xe8

	DB	-24					; ffffffe8H

; 154  :         __emit 0x64

	DB	100					; 00000064H

; 155  :         __emit 0x2f

	DB	47					; 0000002fH

; 156  :         __emit 0x01

	DB	1

; 157  :         __emit 0x68

	DB	104					; 00000068H

; 158  :         __emit 0x90

	DB	-112					; ffffff90H

; 159  :         __emit 0x06

	DB	6

; 160  :         __emit 0x07

	DB	7

; 161  :         __emit 0x01

	DB	1

; 162  :         __emit 0x89

	DB	-119					; ffffff89H

; 163  :         __emit 0x15

	DB	21					; 00000015H

; 164  :         __emit 0xc4

	DB	-60					; ffffffc4H

; 165  :         __emit 0x64

	DB	100					; 00000064H

; 166  :         __emit 0x2f

	DB	47					; 0000002fH

; 167  :         __emit 0x01

	DB	1

; 168  :         __emit 0x89

	DB	-119					; ffffff89H

; 169  :         __emit 0x0d

	DB	13					; 0000000dH

; 170  :         __emit 0x50

	DB	80					; 00000050H

; 171  :         __emit 0x6a

	DB	106					; 0000006aH

; 172  :         __emit 0x2f

	DB	47					; 0000002fH

; 173  :         __emit 0x01

	DB	1

; 174  :         __emit 0xa3

	DB	-93					; ffffffa3H

; 175  :         __emit 0x58

	DB	88					; 00000058H

; 176  :         __emit 0x6a

	DB	106					; 0000006aH

; 177  :         __emit 0x2f

	DB	47					; 0000002fH

; 178  :         __emit 0x01

	DB	1

; 179  :         __emit 0x89

	DB	-119					; ffffff89H

; 180  :         __emit 0x15

	DB	21					; 00000015H

; 181  :         __emit 0xe8

	DB	-24					; ffffffe8H

; 182  :         __emit 0x64

	DB	100					; 00000064H

; 183  :         __emit 0x2f

	DB	47					; 0000002fH

; 184  :         __emit 0x01

	DB	1

; 185  :         __emit 0xc7

	DB	-57					; ffffffc7H

; 186  :         __emit 0x05

	DB	5

; 187  :         __emit 0x4c

	DB	76					; 0000004cH

; 188  :         __emit 0x6a

	DB	106					; 0000006aH

; 189  :         __emit 0x2f

	DB	47					; 0000002fH

; 190  :         __emit 0x01

	DB	1

; 191  :         __emit 0xb8

	DB	-72					; ffffffb8H

; 192  :         __emit 0x13

	DB	19					; 00000013H

; 193  :         __emit 0x11

	DB	17					; 00000011H

; 194  :         __emit 0x01

	DB	1

; 195  :         __emit 0xe8

	DB	-24					; ffffffe8H

; 196  :         __emit 0xe0

	DB	-32					; ffffffe0H

; 197  :         __emit 0x6d

	DB	109					; 0000006dH

; 198  :         __emit 0x41

	DB	65					; 00000041H

; 199  :         __emit 0x00

	DB	0

; 200  :         __emit 0x83

	DB	-125					; ffffff83H

; 201  :         __emit 0xc4

	DB	-60					; ffffffc4H

; 202  :         __emit 0x04

	DB	4

; 203  :         __emit 0xb8

	DB	-72					; ffffffb8H

; 204  :         __emit 0x4c

	DB	76					; 0000004cH

; 205  :         __emit 0x6a

	DB	106					; 0000006aH

; 206  :         __emit 0x2f

	DB	47					; 0000002fH

; 207  :         __emit 0x01

	DB	1

; 208  :         __emit 0xc3

	DB	-61					; ffffffc3H
?getInstance@?$ConcreteModuleClass@V?$DefaultModuleTag@$0A@@FXParticleSystem@@@FXParticleSystem@@SAABV12@XZ ENDP ; FXParticleSystem::ConcreteModuleClass<FXParticleSystem::DefaultModuleTag<0> >::getInstance
_TEXT	ENDS
PUBLIC	??0?$ConcreteModuleClass@V?$DefaultModuleTag@$00@FXParticleSystem@@@FXParticleSystem@@AAE@XZ ; FXParticleSystem::ConcreteModuleClass<FXParticleSystem::DefaultModuleTag<1> >::ConcreteModuleClass<FXParticleSystem::DefaultModuleTag<1> >
; Function compile flags: /Ogty
;	COMDAT ??0?$ConcreteModuleClass@V?$DefaultModuleTag@$00@FXParticleSystem@@@FXParticleSystem@@AAE@XZ
_TEXT	SEGMENT
_this$ = -4						; size = 4
??0?$ConcreteModuleClass@V?$DefaultModuleTag@$00@FXParticleSystem@@@FXParticleSystem@@AAE@XZ PROC NEAR ; FXParticleSystem::ConcreteModuleClass<FXParticleSystem::DefaultModuleTag<1> >::ConcreteModuleClass<FXParticleSystem::DefaultModuleTag<1> >, COMDAT
; _this$ = ecx

; 215  :     __asm {
; 216  :         __emit 0x8b

	DB	-117					; ffffff8bH

; 217  :         __emit 0x15

	DB	21					; 00000015H

; 218  :         __emit 0xd0

	DB	-48					; ffffffd0H

; 219  :         __emit 0x6c

	DB	108					; 0000006cH

; 220  :         __emit 0x2f

	DB	47					; 0000002fH

; 221  :         __emit 0x01

	DB	1

; 222  :         __emit 0x8b

	DB	-117					; ffffff8bH

; 223  :         __emit 0x12

	DB	18					; 00000012H

; 224  :         __emit 0x8b

	DB	-117					; ffffff8bH

; 225  :         __emit 0xc1

	DB	-63					; ffffffc1H

; 226  :         __emit 0x8b

	DB	-117					; ffffff8bH

; 227  :         __emit 0x0d

	DB	13					; 0000000dH

; 228  :         __emit 0xd4

	DB	-44					; ffffffd4H

; 229  :         __emit 0x6c

	DB	108					; 0000006cH

; 230  :         __emit 0x2f

	DB	47					; 0000002fH

; 231  :         __emit 0x01

	DB	1

; 232  :         __emit 0x8b

	DB	-117					; ffffff8bH

; 233  :         __emit 0x09

	DB	9

; 234  :         __emit 0xa3

	DB	-93					; ffffffa3H

; 235  :         __emit 0xc8

	DB	-56					; ffffffc8H

; 236  :         __emit 0x64

	DB	100					; 00000064H

; 237  :         __emit 0x2f

	DB	47					; 0000002fH

; 238  :         __emit 0x01

	DB	1

; 239  :         __emit 0xc7

	DB	-57					; ffffffc7H

; 240  :         __emit 0x00

	DB	0

; 241  :         __emit 0x38

	DB	56					; 00000038H

; 242  :         __emit 0x08

	DB	8

; 243  :         __emit 0x11

	DB	17					; 00000011H

; 244  :         __emit 0x01

	DB	1

; 245  :         __emit 0x89

	DB	-119					; ffffff89H

; 246  :         __emit 0x50

	DB	80					; 00000050H

; 247  :         __emit 0x04

	DB	4

; 248  :         __emit 0x89

	DB	-119					; ffffff89H

; 249  :         __emit 0x48

	DB	72					; 00000048H

; 250  :         __emit 0x08

	DB	8

; 251  :         __emit 0x8b

	DB	-117					; ffffff8bH

; 252  :         __emit 0x0d

	DB	13					; 0000000dH

; 253  :         __emit 0xec

	DB	-20					; ffffffecH

; 254  :         __emit 0x64

	DB	100					; 00000064H

; 255  :         __emit 0x2f

	DB	47					; 0000002fH

; 256  :         __emit 0x01

	DB	1

; 257  :         __emit 0x89

	DB	-119					; ffffff89H

; 258  :         __emit 0x48

	DB	72					; 00000048H

; 259  :         __emit 0x0c

	DB	12					; 0000000cH

; 260  :         __emit 0xa3

	DB	-93					; ffffffa3H

; 261  :         __emit 0xec

	DB	-20					; ffffffecH

; 262  :         __emit 0x64

	DB	100					; 00000064H

; 263  :         __emit 0x2f

	DB	47					; 0000002fH

; 264  :         __emit 0x01

	DB	1

; 265  :         __emit 0xc7

	DB	-57					; ffffffc7H

; 266  :         __emit 0x00

	DB	0

; 267  :         __emit 0xac

	DB	-84					; ffffffacH

; 268  :         __emit 0x13

	DB	19					; 00000013H

; 269  :         __emit 0x11

	DB	17					; 00000011H

; 270  :         __emit 0x01

	DB	1

; 271  :         __emit 0xc3

	DB	-61					; ffffffc3H

; 272  :     }
; 273  : }

	mov	eax, DWORD PTR _this$[ebp]
??0?$ConcreteModuleClass@V?$DefaultModuleTag@$00@FXParticleSystem@@@FXParticleSystem@@AAE@XZ ENDP ; FXParticleSystem::ConcreteModuleClass<FXParticleSystem::DefaultModuleTag<1> >::ConcreteModuleClass<FXParticleSystem::DefaultModuleTag<1> >
_TEXT	ENDS
PUBLIC	??1?$ConcreteModuleClass@V?$DefaultModuleTag@$00@FXParticleSystem@@@FXParticleSystem@@QAE@XZ ; FXParticleSystem::ConcreteModuleClass<FXParticleSystem::DefaultModuleTag<1> >::~ConcreteModuleClass<FXParticleSystem::DefaultModuleTag<1> >
; Function compile flags: /Ogty
;	COMDAT ??1?$ConcreteModuleClass@V?$DefaultModuleTag@$00@FXParticleSystem@@@FXParticleSystem@@QAE@XZ
_TEXT	SEGMENT
??1?$ConcreteModuleClass@V?$DefaultModuleTag@$00@FXParticleSystem@@@FXParticleSystem@@QAE@XZ PROC NEAR ; FXParticleSystem::ConcreteModuleClass<FXParticleSystem::DefaultModuleTag<1> >::~ConcreteModuleClass<FXParticleSystem::DefaultModuleTag<1> >, COMDAT
; _this$ = ecx

; 278  :     __asm {
; 279  :         __emit 0xc7

	DB	-57					; ffffffc7H

; 280  :         __emit 0x01

	DB	1

; 281  :         __emit 0x38

	DB	56					; 00000038H

; 282  :         __emit 0x08

	DB	8

; 283  :         __emit 0x11

	DB	17					; 00000011H

; 284  :         __emit 0x01

	DB	1

; 285  :         __emit 0xc3

	DB	-61					; ffffffc3H
??1?$ConcreteModuleClass@V?$DefaultModuleTag@$00@FXParticleSystem@@@FXParticleSystem@@QAE@XZ ENDP ; FXParticleSystem::ConcreteModuleClass<FXParticleSystem::DefaultModuleTag<1> >::~ConcreteModuleClass<FXParticleSystem::DefaultModuleTag<1> >
_TEXT	ENDS
PUBLIC	?getClass@?$ConcreteModuleTemplate@V?$DefaultModuleTag@$00@FXParticleSystem@@@FXParticleSystem@@QBEABV?$ConcreteModuleClass@V?$DefaultModuleTag@$00@FXParticleSystem@@@2@XZ ; FXParticleSystem::ConcreteModuleTemplate<FXParticleSystem::DefaultModuleTag<1> >::getClass
; Function compile flags: /Ogty
;	COMDAT ?getClass@?$ConcreteModuleTemplate@V?$DefaultModuleTag@$00@FXParticleSystem@@@FXParticleSystem@@QBEABV?$ConcreteModuleClass@V?$DefaultModuleTag@$00@FXParticleSystem@@@2@XZ
_TEXT	SEGMENT
?getClass@?$ConcreteModuleTemplate@V?$DefaultModuleTag@$00@FXParticleSystem@@@FXParticleSystem@@QBEABV?$ConcreteModuleClass@V?$DefaultModuleTag@$00@FXParticleSystem@@@2@XZ PROC NEAR ; FXParticleSystem::ConcreteModuleTemplate<FXParticleSystem::DefaultModuleTag<1> >::getClass, COMDAT
; _this$ = ecx

; 292  :     __asm {
; 293  :         __emit 0xe9

	DB	-23					; ffffffe9H

; 294  :         __emit 0x94

	DB	-108					; ffffff94H

; 295  :         __emit 0x3f

	DB	63					; 0000003fH

; 296  :         __emit 0xa3

	DB	-93					; ffffffa3H

; 297  :         __emit 0xff

	DB	-1
?getClass@?$ConcreteModuleTemplate@V?$DefaultModuleTag@$00@FXParticleSystem@@@FXParticleSystem@@QBEABV?$ConcreteModuleClass@V?$DefaultModuleTag@$00@FXParticleSystem@@@2@XZ ENDP ; FXParticleSystem::ConcreteModuleTemplate<FXParticleSystem::DefaultModuleTag<1> >::getClass
_TEXT	ENDS
PUBLIC	?getInstance@?$ConcreteModuleClass@V?$DefaultModuleTag@$00@FXParticleSystem@@@FXParticleSystem@@SAABV12@XZ ; FXParticleSystem::ConcreteModuleClass<FXParticleSystem::DefaultModuleTag<1> >::getInstance
; Function compile flags: /Ogty
;	COMDAT ?getInstance@?$ConcreteModuleClass@V?$DefaultModuleTag@$00@FXParticleSystem@@@FXParticleSystem@@SAABV12@XZ
_TEXT	SEGMENT
?getInstance@?$ConcreteModuleClass@V?$DefaultModuleTag@$00@FXParticleSystem@@@FXParticleSystem@@SAABV12@XZ PROC NEAR ; FXParticleSystem::ConcreteModuleClass<FXParticleSystem::DefaultModuleTag<1> >::getInstance, COMDAT

; 304  :     __asm {
; 305  :         __emit 0x8a

	DB	-118					; ffffff8aH

; 306  :         __emit 0x0d

	DB	13					; 0000000dH

; 307  :         __emit 0x30

	DB	48					; 00000030H

; 308  :         __emit 0x6a

	DB	106					; 0000006aH

; 309  :         __emit 0x2f

	DB	47					; 0000002fH

; 310  :         __emit 0x01

	DB	1

; 311  :         __emit 0xb8

	DB	-72					; ffffffb8H

; 312  :         __emit 0x01

	DB	1

; 313  :         __emit 0x00

	DB	0

; 314  :         __emit 0x00

	DB	0

; 315  :         __emit 0x00

	DB	0

; 316  :         __emit 0x84

	DB	-124					; ffffff84H

; 317  :         __emit 0xc8

	DB	-56					; ffffffc8H

; 318  :         __emit 0x75

	DB	117					; 00000075H

; 319  :         __emit 0x5a

	DB	90					; 0000005aH

; 320  :         __emit 0x8b

	DB	-117					; ffffff8bH

; 321  :         __emit 0x15

	DB	21					; 00000015H

; 322  :         __emit 0x30

	DB	48					; 00000030H

; 323  :         __emit 0x6a

	DB	106					; 0000006aH

; 324  :         __emit 0x2f

	DB	47					; 0000002fH

; 325  :         __emit 0x01

	DB	1

; 326  :         __emit 0x8b

	DB	-117					; ffffff8bH

; 327  :         __emit 0x0d

	DB	13					; 0000000dH

; 328  :         __emit 0xd0

	DB	-48					; ffffffd0H

; 329  :         __emit 0x6c

	DB	108					; 0000006cH

; 330  :         __emit 0x2f

	DB	47					; 0000002fH

; 331  :         __emit 0x01

	DB	1

; 332  :         __emit 0x8b

	DB	-117					; ffffff8bH

; 333  :         __emit 0x09

	DB	9

; 334  :         __emit 0x0b

	DB	11					; 0000000bH

; 335  :         __emit 0xd0

	DB	-48					; ffffffd0H

; 336  :         __emit 0xa1

	DB	-95					; ffffffa1H

; 337  :         __emit 0xd4

	DB	-44					; ffffffd4H

; 338  :         __emit 0x6c

	DB	108					; 0000006cH

; 339  :         __emit 0x2f

	DB	47					; 0000002fH

; 340  :         __emit 0x01

	DB	1

; 341  :         __emit 0x8b

	DB	-117					; ffffff8bH

; 342  :         __emit 0x00

	DB	0

; 343  :         __emit 0x89

	DB	-119					; ffffff89H

; 344  :         __emit 0x15

	DB	21					; 00000015H

; 345  :         __emit 0x30

	DB	48					; 00000030H

; 346  :         __emit 0x6a

	DB	106					; 0000006aH

; 347  :         __emit 0x2f

	DB	47					; 0000002fH

; 348  :         __emit 0x01

	DB	1

; 349  :         __emit 0xba

	DB	-70					; ffffffbaH

; 350  :         __emit 0x1c

	DB	28					; 0000001cH

; 351  :         __emit 0x6a

	DB	106					; 0000006aH

; 352  :         __emit 0x2f

	DB	47					; 0000002fH

; 353  :         __emit 0x01

	DB	1

; 354  :         __emit 0xa3

	DB	-93					; ffffffa3H

; 355  :         __emit 0x24

	DB	36					; 00000024H

; 356  :         __emit 0x6a

	DB	106					; 0000006aH

; 357  :         __emit 0x2f

	DB	47					; 0000002fH

; 358  :         __emit 0x01

	DB	1

; 359  :         __emit 0xa1

	DB	-95					; ffffffa1H

; 360  :         __emit 0xec

	DB	-20					; ffffffecH

; 361  :         __emit 0x64

	DB	100					; 00000064H

; 362  :         __emit 0x2f

	DB	47					; 0000002fH

; 363  :         __emit 0x01

	DB	1

; 364  :         __emit 0x68

	DB	104					; 00000068H

; 365  :         __emit 0xc0

	DB	-64					; ffffffc0H

; 366  :         __emit 0x06

	DB	6

; 367  :         __emit 0x07

	DB	7

; 368  :         __emit 0x01

	DB	1

; 369  :         __emit 0x89

	DB	-119					; ffffff89H

; 370  :         __emit 0x15

	DB	21					; 00000015H

; 371  :         __emit 0xc8

	DB	-56					; ffffffc8H

; 372  :         __emit 0x64

	DB	100					; 00000064H

; 373  :         __emit 0x2f

	DB	47					; 0000002fH

; 374  :         __emit 0x01

	DB	1

; 375  :         __emit 0x89

	DB	-119					; ffffff89H

; 376  :         __emit 0x0d

	DB	13					; 0000000dH

; 377  :         __emit 0x20

	DB	32					; 00000020H

; 378  :         __emit 0x6a

	DB	106					; 0000006aH

; 379  :         __emit 0x2f

	DB	47					; 0000002fH

; 380  :         __emit 0x01

	DB	1

; 381  :         __emit 0xa3

	DB	-93					; ffffffa3H

; 382  :         __emit 0x28

	DB	40					; 00000028H

; 383  :         __emit 0x6a

	DB	106					; 0000006aH

; 384  :         __emit 0x2f

	DB	47					; 0000002fH

; 385  :         __emit 0x01

	DB	1

; 386  :         __emit 0x89

	DB	-119					; ffffff89H

; 387  :         __emit 0x15

	DB	21					; 00000015H

; 388  :         __emit 0xec

	DB	-20					; ffffffecH

; 389  :         __emit 0x64

	DB	100					; 00000064H

; 390  :         __emit 0x2f

	DB	47					; 0000002fH

; 391  :         __emit 0x01

	DB	1

; 392  :         __emit 0xc7

	DB	-57					; ffffffc7H

; 393  :         __emit 0x05

	DB	5

; 394  :         __emit 0x1c

	DB	28					; 0000001cH

; 395  :         __emit 0x6a

	DB	106					; 0000006aH

; 396  :         __emit 0x2f

	DB	47					; 0000002fH

; 397  :         __emit 0x01

	DB	1

; 398  :         __emit 0xac

	DB	-84					; ffffffacH

; 399  :         __emit 0x13

	DB	19					; 00000013H

; 400  :         __emit 0x11

	DB	17					; 00000011H

; 401  :         __emit 0x01

	DB	1

; 402  :         __emit 0xe8

	DB	-24					; ffffffe8H

; 403  :         __emit 0x70

	DB	112					; 00000070H

; 404  :         __emit 0x70

	DB	112					; 00000070H

; 405  :         __emit 0x41

	DB	65					; 00000041H

; 406  :         __emit 0x00

	DB	0

; 407  :         __emit 0x83

	DB	-125					; ffffff83H

; 408  :         __emit 0xc4

	DB	-60					; ffffffc4H

; 409  :         __emit 0x04

	DB	4

; 410  :         __emit 0xb8

	DB	-72					; ffffffb8H

; 411  :         __emit 0x1c

	DB	28					; 0000001cH

; 412  :         __emit 0x6a

	DB	106					; 0000006aH

; 413  :         __emit 0x2f

	DB	47					; 0000002fH

; 414  :         __emit 0x01

	DB	1

; 415  :         __emit 0xc3

	DB	-61					; ffffffc3H
?getInstance@?$ConcreteModuleClass@V?$DefaultModuleTag@$00@FXParticleSystem@@@FXParticleSystem@@SAABV12@XZ ENDP ; FXParticleSystem::ConcreteModuleClass<FXParticleSystem::DefaultModuleTag<1> >::getInstance
_TEXT	ENDS
PUBLIC	??0?$ConcreteModuleClass@V?$DefaultModuleTag@$01@FXParticleSystem@@@FXParticleSystem@@AAE@XZ ; FXParticleSystem::ConcreteModuleClass<FXParticleSystem::DefaultModuleTag<2> >::ConcreteModuleClass<FXParticleSystem::DefaultModuleTag<2> >
; Function compile flags: /Ogty
;	COMDAT ??0?$ConcreteModuleClass@V?$DefaultModuleTag@$01@FXParticleSystem@@@FXParticleSystem@@AAE@XZ
_TEXT	SEGMENT
_this$ = -4						; size = 4
??0?$ConcreteModuleClass@V?$DefaultModuleTag@$01@FXParticleSystem@@@FXParticleSystem@@AAE@XZ PROC NEAR ; FXParticleSystem::ConcreteModuleClass<FXParticleSystem::DefaultModuleTag<2> >::ConcreteModuleClass<FXParticleSystem::DefaultModuleTag<2> >, COMDAT
; _this$ = ecx

; 422  :     __asm {
; 423  :         __emit 0x8b

	DB	-117					; ffffff8bH

; 424  :         __emit 0x15

	DB	21					; 00000015H

; 425  :         __emit 0x00

	DB	0

; 426  :         __emit 0x6d

	DB	109					; 0000006dH

; 427  :         __emit 0x2f

	DB	47					; 0000002fH

; 428  :         __emit 0x01

	DB	1

; 429  :         __emit 0x8b

	DB	-117					; ffffff8bH

; 430  :         __emit 0x12

	DB	18					; 00000012H

; 431  :         __emit 0x8b

	DB	-117					; ffffff8bH

; 432  :         __emit 0xc1

	DB	-63					; ffffffc1H

; 433  :         __emit 0x8b

	DB	-117					; ffffff8bH

; 434  :         __emit 0x0d

	DB	13					; 0000000dH

; 435  :         __emit 0x04

	DB	4

; 436  :         __emit 0x6d

	DB	109					; 0000006dH

; 437  :         __emit 0x2f

	DB	47					; 0000002fH

; 438  :         __emit 0x01

	DB	1

; 439  :         __emit 0x8b

	DB	-117					; ffffff8bH

; 440  :         __emit 0x09

	DB	9

; 441  :         __emit 0xa3

	DB	-93					; ffffffa3H

; 442  :         __emit 0xcc

	DB	-52					; ffffffccH

; 443  :         __emit 0x64

	DB	100					; 00000064H

; 444  :         __emit 0x2f

	DB	47					; 0000002fH

; 445  :         __emit 0x01

	DB	1

; 446  :         __emit 0xc7

	DB	-57					; ffffffc7H

; 447  :         __emit 0x00

	DB	0

; 448  :         __emit 0x5c

	DB	92					; 0000005cH

; 449  :         __emit 0x08

	DB	8

; 450  :         __emit 0x11

	DB	17					; 00000011H

; 451  :         __emit 0x01

	DB	1

; 452  :         __emit 0x89

	DB	-119					; ffffff89H

; 453  :         __emit 0x50

	DB	80					; 00000050H

; 454  :         __emit 0x04

	DB	4

; 455  :         __emit 0x89

	DB	-119					; ffffff89H

; 456  :         __emit 0x48

	DB	72					; 00000048H

; 457  :         __emit 0x08

	DB	8

; 458  :         __emit 0x8b

	DB	-117					; ffffff8bH

; 459  :         __emit 0x0d

	DB	13					; 0000000dH

; 460  :         __emit 0xf0

	DB	-16					; fffffff0H

; 461  :         __emit 0x64

	DB	100					; 00000064H

; 462  :         __emit 0x2f

	DB	47					; 0000002fH

; 463  :         __emit 0x01

	DB	1

; 464  :         __emit 0x89

	DB	-119					; ffffff89H

; 465  :         __emit 0x48

	DB	72					; 00000048H

; 466  :         __emit 0x0c

	DB	12					; 0000000cH

; 467  :         __emit 0xa3

	DB	-93					; ffffffa3H

; 468  :         __emit 0xf0

	DB	-16					; fffffff0H

; 469  :         __emit 0x64

	DB	100					; 00000064H

; 470  :         __emit 0x2f

	DB	47					; 0000002fH

; 471  :         __emit 0x01

	DB	1

; 472  :         __emit 0xc7

	DB	-57					; ffffffc7H

; 473  :         __emit 0x00

	DB	0

; 474  :         __emit 0xd0

	DB	-48					; ffffffd0H

; 475  :         __emit 0x13

	DB	19					; 00000013H

; 476  :         __emit 0x11

	DB	17					; 00000011H

; 477  :         __emit 0x01

	DB	1

; 478  :         __emit 0xc3

	DB	-61					; ffffffc3H

; 479  :     }
; 480  : }

	mov	eax, DWORD PTR _this$[ebp]
??0?$ConcreteModuleClass@V?$DefaultModuleTag@$01@FXParticleSystem@@@FXParticleSystem@@AAE@XZ ENDP ; FXParticleSystem::ConcreteModuleClass<FXParticleSystem::DefaultModuleTag<2> >::ConcreteModuleClass<FXParticleSystem::DefaultModuleTag<2> >
_TEXT	ENDS
PUBLIC	??1?$ConcreteModuleClass@V?$DefaultModuleTag@$01@FXParticleSystem@@@FXParticleSystem@@QAE@XZ ; FXParticleSystem::ConcreteModuleClass<FXParticleSystem::DefaultModuleTag<2> >::~ConcreteModuleClass<FXParticleSystem::DefaultModuleTag<2> >
; Function compile flags: /Ogty
;	COMDAT ??1?$ConcreteModuleClass@V?$DefaultModuleTag@$01@FXParticleSystem@@@FXParticleSystem@@QAE@XZ
_TEXT	SEGMENT
??1?$ConcreteModuleClass@V?$DefaultModuleTag@$01@FXParticleSystem@@@FXParticleSystem@@QAE@XZ PROC NEAR ; FXParticleSystem::ConcreteModuleClass<FXParticleSystem::DefaultModuleTag<2> >::~ConcreteModuleClass<FXParticleSystem::DefaultModuleTag<2> >, COMDAT
; _this$ = ecx

; 485  :     __asm {
; 486  :         __emit 0xc7

	DB	-57					; ffffffc7H

; 487  :         __emit 0x01

	DB	1

; 488  :         __emit 0x5c

	DB	92					; 0000005cH

; 489  :         __emit 0x08

	DB	8

; 490  :         __emit 0x11

	DB	17					; 00000011H

; 491  :         __emit 0x01

	DB	1

; 492  :         __emit 0xc3

	DB	-61					; ffffffc3H
??1?$ConcreteModuleClass@V?$DefaultModuleTag@$01@FXParticleSystem@@@FXParticleSystem@@QAE@XZ ENDP ; FXParticleSystem::ConcreteModuleClass<FXParticleSystem::DefaultModuleTag<2> >::~ConcreteModuleClass<FXParticleSystem::DefaultModuleTag<2> >
_TEXT	ENDS
PUBLIC	?getClass@?$ConcreteModuleTemplate@V?$DefaultModuleTag@$01@FXParticleSystem@@@FXParticleSystem@@QBEABV?$ConcreteModuleClass@V?$DefaultModuleTag@$01@FXParticleSystem@@@2@XZ ; FXParticleSystem::ConcreteModuleTemplate<FXParticleSystem::DefaultModuleTag<2> >::getClass
; Function compile flags: /Ogty
;	COMDAT ?getClass@?$ConcreteModuleTemplate@V?$DefaultModuleTag@$01@FXParticleSystem@@@FXParticleSystem@@QBEABV?$ConcreteModuleClass@V?$DefaultModuleTag@$01@FXParticleSystem@@@2@XZ
_TEXT	SEGMENT
?getClass@?$ConcreteModuleTemplate@V?$DefaultModuleTag@$01@FXParticleSystem@@@FXParticleSystem@@QBEABV?$ConcreteModuleClass@V?$DefaultModuleTag@$01@FXParticleSystem@@@2@XZ PROC NEAR ; FXParticleSystem::ConcreteModuleTemplate<FXParticleSystem::DefaultModuleTag<2> >::getClass, COMDAT
; _this$ = ecx

; 499  :     __asm {
; 500  :         __emit 0xe9

	DB	-23					; ffffffe9H

; 501  :         __emit 0xc8

	DB	-56					; ffffffc8H

; 502  :         __emit 0xfe

	DB	-2					; fffffffeH

; 503  :         __emit 0xa2

	DB	-94					; ffffffa2H

; 504  :         __emit 0xff

	DB	-1
?getClass@?$ConcreteModuleTemplate@V?$DefaultModuleTag@$01@FXParticleSystem@@@FXParticleSystem@@QBEABV?$ConcreteModuleClass@V?$DefaultModuleTag@$01@FXParticleSystem@@@2@XZ ENDP ; FXParticleSystem::ConcreteModuleTemplate<FXParticleSystem::DefaultModuleTag<2> >::getClass
_TEXT	ENDS
PUBLIC	?getInstance@?$ConcreteModuleClass@V?$DefaultModuleTag@$01@FXParticleSystem@@@FXParticleSystem@@SAABV12@XZ ; FXParticleSystem::ConcreteModuleClass<FXParticleSystem::DefaultModuleTag<2> >::getInstance
; Function compile flags: /Ogty
;	COMDAT ?getInstance@?$ConcreteModuleClass@V?$DefaultModuleTag@$01@FXParticleSystem@@@FXParticleSystem@@SAABV12@XZ
_TEXT	SEGMENT
?getInstance@?$ConcreteModuleClass@V?$DefaultModuleTag@$01@FXParticleSystem@@@FXParticleSystem@@SAABV12@XZ PROC NEAR ; FXParticleSystem::ConcreteModuleClass<FXParticleSystem::DefaultModuleTag<2> >::getInstance, COMDAT

; 511  :     __asm {
; 512  :         __emit 0x8a

	DB	-118					; ffffff8aH

; 513  :         __emit 0x0d

	DB	13					; 0000000dH

; 514  :         __emit 0xc0

	DB	-64					; ffffffc0H

; 515  :         __emit 0x6a

	DB	106					; 0000006aH

; 516  :         __emit 0x2f

	DB	47					; 0000002fH

; 517  :         __emit 0x01

	DB	1

; 518  :         __emit 0xb8

	DB	-72					; ffffffb8H

; 519  :         __emit 0x01

	DB	1

; 520  :         __emit 0x00

	DB	0

; 521  :         __emit 0x00

	DB	0

; 522  :         __emit 0x00

	DB	0

; 523  :         __emit 0x84

	DB	-124					; ffffff84H

; 524  :         __emit 0xc8

	DB	-56					; ffffffc8H

; 525  :         __emit 0x75

	DB	117					; 00000075H

; 526  :         __emit 0x5a

	DB	90					; 0000005aH

; 527  :         __emit 0x8b

	DB	-117					; ffffff8bH

; 528  :         __emit 0x15

	DB	21					; 00000015H

; 529  :         __emit 0xc0

	DB	-64					; ffffffc0H

; 530  :         __emit 0x6a

	DB	106					; 0000006aH

; 531  :         __emit 0x2f

	DB	47					; 0000002fH

; 532  :         __emit 0x01

	DB	1

; 533  :         __emit 0x8b

	DB	-117					; ffffff8bH

; 534  :         __emit 0x0d

	DB	13					; 0000000dH

; 535  :         __emit 0x00

	DB	0

; 536  :         __emit 0x6d

	DB	109					; 0000006dH

; 537  :         __emit 0x2f

	DB	47					; 0000002fH

; 538  :         __emit 0x01

	DB	1

; 539  :         __emit 0x8b

	DB	-117					; ffffff8bH

; 540  :         __emit 0x09

	DB	9

; 541  :         __emit 0x0b

	DB	11					; 0000000bH

; 542  :         __emit 0xd0

	DB	-48					; ffffffd0H

; 543  :         __emit 0xa1

	DB	-95					; ffffffa1H

; 544  :         __emit 0x04

	DB	4

; 545  :         __emit 0x6d

	DB	109					; 0000006dH

; 546  :         __emit 0x2f

	DB	47					; 0000002fH

; 547  :         __emit 0x01

	DB	1

; 548  :         __emit 0x8b

	DB	-117					; ffffff8bH

; 549  :         __emit 0x00

	DB	0

; 550  :         __emit 0x89

	DB	-119					; ffffff89H

; 551  :         __emit 0x15

	DB	21					; 00000015H

; 552  :         __emit 0xc0

	DB	-64					; ffffffc0H

; 553  :         __emit 0x6a

	DB	106					; 0000006aH

; 554  :         __emit 0x2f

	DB	47					; 0000002fH

; 555  :         __emit 0x01

	DB	1

; 556  :         __emit 0xba

	DB	-70					; ffffffbaH

; 557  :         __emit 0xac

	DB	-84					; ffffffacH

; 558  :         __emit 0x6a

	DB	106					; 0000006aH

; 559  :         __emit 0x2f

	DB	47					; 0000002fH

; 560  :         __emit 0x01

	DB	1

; 561  :         __emit 0xa3

	DB	-93					; ffffffa3H

; 562  :         __emit 0xb4

	DB	-76					; ffffffb4H

; 563  :         __emit 0x6a

	DB	106					; 0000006aH

; 564  :         __emit 0x2f

	DB	47					; 0000002fH

; 565  :         __emit 0x01

	DB	1

; 566  :         __emit 0xa1

	DB	-95					; ffffffa1H

; 567  :         __emit 0xf0

	DB	-16					; fffffff0H

; 568  :         __emit 0x64

	DB	100					; 00000064H

; 569  :         __emit 0x2f

	DB	47					; 0000002fH

; 570  :         __emit 0x01

	DB	1

; 571  :         __emit 0x68

	DB	104					; 00000068H

; 572  :         __emit 0x30

	DB	48					; 00000030H

; 573  :         __emit 0x06

	DB	6

; 574  :         __emit 0x07

	DB	7

; 575  :         __emit 0x01

	DB	1

; 576  :         __emit 0x89

	DB	-119					; ffffff89H

; 577  :         __emit 0x15

	DB	21					; 00000015H

; 578  :         __emit 0xcc

	DB	-52					; ffffffccH

; 579  :         __emit 0x64

	DB	100					; 00000064H

; 580  :         __emit 0x2f

	DB	47					; 0000002fH

; 581  :         __emit 0x01

	DB	1

; 582  :         __emit 0x89

	DB	-119					; ffffff89H

; 583  :         __emit 0x0d

	DB	13					; 0000000dH

; 584  :         __emit 0xb0

	DB	-80					; ffffffb0H

; 585  :         __emit 0x6a

	DB	106					; 0000006aH

; 586  :         __emit 0x2f

	DB	47					; 0000002fH

; 587  :         __emit 0x01

	DB	1

; 588  :         __emit 0xa3

	DB	-93					; ffffffa3H

; 589  :         __emit 0xb8

	DB	-72					; ffffffb8H

; 590  :         __emit 0x6a

	DB	106					; 0000006aH

; 591  :         __emit 0x2f

	DB	47					; 0000002fH

; 592  :         __emit 0x01

	DB	1

; 593  :         __emit 0x89

	DB	-119					; ffffff89H

; 594  :         __emit 0x15

	DB	21					; 00000015H

; 595  :         __emit 0xf0

	DB	-16					; fffffff0H

; 596  :         __emit 0x64

	DB	100					; 00000064H

; 597  :         __emit 0x2f

	DB	47					; 0000002fH

; 598  :         __emit 0x01

	DB	1

; 599  :         __emit 0xc7

	DB	-57					; ffffffc7H

; 600  :         __emit 0x05

	DB	5

; 601  :         __emit 0xac

	DB	-84					; ffffffacH

; 602  :         __emit 0x6a

	DB	106					; 0000006aH

; 603  :         __emit 0x2f

	DB	47					; 0000002fH

; 604  :         __emit 0x01

	DB	1

; 605  :         __emit 0xd0

	DB	-48					; ffffffd0H

; 606  :         __emit 0x13

	DB	19					; 00000013H

; 607  :         __emit 0x11

	DB	17					; 00000011H

; 608  :         __emit 0x01

	DB	1

; 609  :         __emit 0xe8

	DB	-24					; ffffffe8H

; 610  :         __emit 0xc0

	DB	-64					; ffffffc0H

; 611  :         __emit 0x68

	DB	104					; 00000068H

; 612  :         __emit 0x41

	DB	65					; 00000041H

; 613  :         __emit 0x00

	DB	0

; 614  :         __emit 0x83

	DB	-125					; ffffff83H

; 615  :         __emit 0xc4

	DB	-60					; ffffffc4H

; 616  :         __emit 0x04

	DB	4

; 617  :         __emit 0xb8

	DB	-72					; ffffffb8H

; 618  :         __emit 0xac

	DB	-84					; ffffffacH

; 619  :         __emit 0x6a

	DB	106					; 0000006aH

; 620  :         __emit 0x2f

	DB	47					; 0000002fH

; 621  :         __emit 0x01

	DB	1

; 622  :         __emit 0xc3

	DB	-61					; ffffffc3H
?getInstance@?$ConcreteModuleClass@V?$DefaultModuleTag@$01@FXParticleSystem@@@FXParticleSystem@@SAABV12@XZ ENDP ; FXParticleSystem::ConcreteModuleClass<FXParticleSystem::DefaultModuleTag<2> >::getInstance
_TEXT	ENDS
PUBLIC	??0?$ConcreteModuleClass@V?$DefaultModuleTag@$02@FXParticleSystem@@@FXParticleSystem@@AAE@XZ ; FXParticleSystem::ConcreteModuleClass<FXParticleSystem::DefaultModuleTag<3> >::ConcreteModuleClass<FXParticleSystem::DefaultModuleTag<3> >
; Function compile flags: /Ogty
;	COMDAT ??0?$ConcreteModuleClass@V?$DefaultModuleTag@$02@FXParticleSystem@@@FXParticleSystem@@AAE@XZ
_TEXT	SEGMENT
_this$ = -4						; size = 4
??0?$ConcreteModuleClass@V?$DefaultModuleTag@$02@FXParticleSystem@@@FXParticleSystem@@AAE@XZ PROC NEAR ; FXParticleSystem::ConcreteModuleClass<FXParticleSystem::DefaultModuleTag<3> >::ConcreteModuleClass<FXParticleSystem::DefaultModuleTag<3> >, COMDAT
; _this$ = ecx

; 629  :     __asm {
; 630  :         __emit 0x8b

	DB	-117					; ffffff8bH

; 631  :         __emit 0x15

	DB	21					; 00000015H

; 632  :         __emit 0xf0

	DB	-16					; fffffff0H

; 633  :         __emit 0x6c

	DB	108					; 0000006cH

; 634  :         __emit 0x2f

	DB	47					; 0000002fH

; 635  :         __emit 0x01

	DB	1

; 636  :         __emit 0x8b

	DB	-117					; ffffff8bH

; 637  :         __emit 0x12

	DB	18					; 00000012H

; 638  :         __emit 0x8b

	DB	-117					; ffffff8bH

; 639  :         __emit 0xc1

	DB	-63					; ffffffc1H

; 640  :         __emit 0x8b

	DB	-117					; ffffff8bH

; 641  :         __emit 0x0d

	DB	13					; 0000000dH

; 642  :         __emit 0xf4

	DB	-12					; fffffff4H

; 643  :         __emit 0x6c

	DB	108					; 0000006cH

; 644  :         __emit 0x2f

	DB	47					; 0000002fH

; 645  :         __emit 0x01

	DB	1

; 646  :         __emit 0x8b

	DB	-117					; ffffff8bH

; 647  :         __emit 0x09

	DB	9

; 648  :         __emit 0xa3

	DB	-93					; ffffffa3H

; 649  :         __emit 0xd0

	DB	-48					; ffffffd0H

; 650  :         __emit 0x64

	DB	100					; 00000064H

; 651  :         __emit 0x2f

	DB	47					; 0000002fH

; 652  :         __emit 0x01

	DB	1

; 653  :         __emit 0xc7

	DB	-57					; ffffffc7H

; 654  :         __emit 0x00

	DB	0

; 655  :         __emit 0x50

	DB	80					; 00000050H

; 656  :         __emit 0x08

	DB	8

; 657  :         __emit 0x11

	DB	17					; 00000011H

; 658  :         __emit 0x01

	DB	1

; 659  :         __emit 0x89

	DB	-119					; ffffff89H

; 660  :         __emit 0x50

	DB	80					; 00000050H

; 661  :         __emit 0x04

	DB	4

; 662  :         __emit 0x89

	DB	-119					; ffffff89H

; 663  :         __emit 0x48

	DB	72					; 00000048H

; 664  :         __emit 0x08

	DB	8

; 665  :         __emit 0x8b

	DB	-117					; ffffff8bH

; 666  :         __emit 0x0d

	DB	13					; 0000000dH

; 667  :         __emit 0xf4

	DB	-12					; fffffff4H

; 668  :         __emit 0x64

	DB	100					; 00000064H

; 669  :         __emit 0x2f

	DB	47					; 0000002fH

; 670  :         __emit 0x01

	DB	1

; 671  :         __emit 0x89

	DB	-119					; ffffff89H

; 672  :         __emit 0x48

	DB	72					; 00000048H

; 673  :         __emit 0x0c

	DB	12					; 0000000cH

; 674  :         __emit 0xa3

	DB	-93					; ffffffa3H

; 675  :         __emit 0xf4

	DB	-12					; fffffff4H

; 676  :         __emit 0x64

	DB	100					; 00000064H

; 677  :         __emit 0x2f

	DB	47					; 0000002fH

; 678  :         __emit 0x01

	DB	1

; 679  :         __emit 0xc7

	DB	-57					; ffffffc7H

; 680  :         __emit 0x00

	DB	0

; 681  :         __emit 0xc4

	DB	-60					; ffffffc4H

; 682  :         __emit 0x13

	DB	19					; 00000013H

; 683  :         __emit 0x11

	DB	17					; 00000011H

; 684  :         __emit 0x01

	DB	1

; 685  :         __emit 0xc3

	DB	-61					; ffffffc3H

; 686  :     }
; 687  : }

	mov	eax, DWORD PTR _this$[ebp]
??0?$ConcreteModuleClass@V?$DefaultModuleTag@$02@FXParticleSystem@@@FXParticleSystem@@AAE@XZ ENDP ; FXParticleSystem::ConcreteModuleClass<FXParticleSystem::DefaultModuleTag<3> >::ConcreteModuleClass<FXParticleSystem::DefaultModuleTag<3> >
_TEXT	ENDS
PUBLIC	??1?$ConcreteModuleClass@V?$DefaultModuleTag@$02@FXParticleSystem@@@FXParticleSystem@@QAE@XZ ; FXParticleSystem::ConcreteModuleClass<FXParticleSystem::DefaultModuleTag<3> >::~ConcreteModuleClass<FXParticleSystem::DefaultModuleTag<3> >
; Function compile flags: /Ogty
;	COMDAT ??1?$ConcreteModuleClass@V?$DefaultModuleTag@$02@FXParticleSystem@@@FXParticleSystem@@QAE@XZ
_TEXT	SEGMENT
??1?$ConcreteModuleClass@V?$DefaultModuleTag@$02@FXParticleSystem@@@FXParticleSystem@@QAE@XZ PROC NEAR ; FXParticleSystem::ConcreteModuleClass<FXParticleSystem::DefaultModuleTag<3> >::~ConcreteModuleClass<FXParticleSystem::DefaultModuleTag<3> >, COMDAT
; _this$ = ecx

; 692  :     __asm {
; 693  :         __emit 0xc7

	DB	-57					; ffffffc7H

; 694  :         __emit 0x01

	DB	1

; 695  :         __emit 0x50

	DB	80					; 00000050H

; 696  :         __emit 0x08

	DB	8

; 697  :         __emit 0x11

	DB	17					; 00000011H

; 698  :         __emit 0x01

	DB	1

; 699  :         __emit 0xc3

	DB	-61					; ffffffc3H
??1?$ConcreteModuleClass@V?$DefaultModuleTag@$02@FXParticleSystem@@@FXParticleSystem@@QAE@XZ ENDP ; FXParticleSystem::ConcreteModuleClass<FXParticleSystem::DefaultModuleTag<3> >::~ConcreteModuleClass<FXParticleSystem::DefaultModuleTag<3> >
_TEXT	ENDS
PUBLIC	?getClass@?$ConcreteModuleTemplate@V?$DefaultModuleTag@$02@FXParticleSystem@@@FXParticleSystem@@QBEABV?$ConcreteModuleClass@V?$DefaultModuleTag@$02@FXParticleSystem@@@2@XZ ; FXParticleSystem::ConcreteModuleTemplate<FXParticleSystem::DefaultModuleTag<3> >::getClass
; Function compile flags: /Ogty
;	COMDAT ?getClass@?$ConcreteModuleTemplate@V?$DefaultModuleTag@$02@FXParticleSystem@@@FXParticleSystem@@QBEABV?$ConcreteModuleClass@V?$DefaultModuleTag@$02@FXParticleSystem@@@2@XZ
_TEXT	SEGMENT
?getClass@?$ConcreteModuleTemplate@V?$DefaultModuleTag@$02@FXParticleSystem@@@FXParticleSystem@@QBEABV?$ConcreteModuleClass@V?$DefaultModuleTag@$02@FXParticleSystem@@@2@XZ PROC NEAR ; FXParticleSystem::ConcreteModuleTemplate<FXParticleSystem::DefaultModuleTag<3> >::getClass, COMDAT
; _this$ = ecx

; 706  :     __asm {
; 707  :         __emit 0xe9

	DB	-23					; ffffffe9H

; 708  :         __emit 0x43

	DB	67					; 00000043H

; 709  :         __emit 0x20

	DB	32					; 00000020H

; 710  :         __emit 0xa3

	DB	-93					; ffffffa3H

; 711  :         __emit 0xff

	DB	-1
?getClass@?$ConcreteModuleTemplate@V?$DefaultModuleTag@$02@FXParticleSystem@@@FXParticleSystem@@QBEABV?$ConcreteModuleClass@V?$DefaultModuleTag@$02@FXParticleSystem@@@2@XZ ENDP ; FXParticleSystem::ConcreteModuleTemplate<FXParticleSystem::DefaultModuleTag<3> >::getClass
_TEXT	ENDS
PUBLIC	?getInstance@?$ConcreteModuleClass@V?$DefaultModuleTag@$02@FXParticleSystem@@@FXParticleSystem@@SAABV12@XZ ; FXParticleSystem::ConcreteModuleClass<FXParticleSystem::DefaultModuleTag<3> >::getInstance
; Function compile flags: /Ogty
;	COMDAT ?getInstance@?$ConcreteModuleClass@V?$DefaultModuleTag@$02@FXParticleSystem@@@FXParticleSystem@@SAABV12@XZ
_TEXT	SEGMENT
?getInstance@?$ConcreteModuleClass@V?$DefaultModuleTag@$02@FXParticleSystem@@@FXParticleSystem@@SAABV12@XZ PROC NEAR ; FXParticleSystem::ConcreteModuleClass<FXParticleSystem::DefaultModuleTag<3> >::getInstance, COMDAT

; 718  :     __asm {
; 719  :         __emit 0x8a

	DB	-118					; ffffff8aH

; 720  :         __emit 0x0d

	DB	13					; 0000000dH

; 721  :         __emit 0x90

	DB	-112					; ffffff90H

; 722  :         __emit 0x6a

	DB	106					; 0000006aH

; 723  :         __emit 0x2f

	DB	47					; 0000002fH

; 724  :         __emit 0x01

	DB	1

; 725  :         __emit 0xb8

	DB	-72					; ffffffb8H

; 726  :         __emit 0x01

	DB	1

; 727  :         __emit 0x00

	DB	0

; 728  :         __emit 0x00

	DB	0

; 729  :         __emit 0x00

	DB	0

; 730  :         __emit 0x84

	DB	-124					; ffffff84H

; 731  :         __emit 0xc8

	DB	-56					; ffffffc8H

; 732  :         __emit 0x75

	DB	117					; 00000075H

; 733  :         __emit 0x5a

	DB	90					; 0000005aH

; 734  :         __emit 0x8b

	DB	-117					; ffffff8bH

; 735  :         __emit 0x15

	DB	21					; 00000015H

; 736  :         __emit 0x90

	DB	-112					; ffffff90H

; 737  :         __emit 0x6a

	DB	106					; 0000006aH

; 738  :         __emit 0x2f

	DB	47					; 0000002fH

; 739  :         __emit 0x01

	DB	1

; 740  :         __emit 0x8b

	DB	-117					; ffffff8bH

; 741  :         __emit 0x0d

	DB	13					; 0000000dH

; 742  :         __emit 0xf0

	DB	-16					; fffffff0H

; 743  :         __emit 0x6c

	DB	108					; 0000006cH

; 744  :         __emit 0x2f

	DB	47					; 0000002fH

; 745  :         __emit 0x01

	DB	1

; 746  :         __emit 0x8b

	DB	-117					; ffffff8bH

; 747  :         __emit 0x09

	DB	9

; 748  :         __emit 0x0b

	DB	11					; 0000000bH

; 749  :         __emit 0xd0

	DB	-48					; ffffffd0H

; 750  :         __emit 0xa1

	DB	-95					; ffffffa1H

; 751  :         __emit 0xf4

	DB	-12					; fffffff4H

; 752  :         __emit 0x6c

	DB	108					; 0000006cH

; 753  :         __emit 0x2f

	DB	47					; 0000002fH

; 754  :         __emit 0x01

	DB	1

; 755  :         __emit 0x8b

	DB	-117					; ffffff8bH

; 756  :         __emit 0x00

	DB	0

; 757  :         __emit 0x89

	DB	-119					; ffffff89H

; 758  :         __emit 0x15

	DB	21					; 00000015H

; 759  :         __emit 0x90

	DB	-112					; ffffff90H

; 760  :         __emit 0x6a

	DB	106					; 0000006aH

; 761  :         __emit 0x2f

	DB	47					; 0000002fH

; 762  :         __emit 0x01

	DB	1

; 763  :         __emit 0xba

	DB	-70					; ffffffbaH

; 764  :         __emit 0x7c

	DB	124					; 0000007cH

; 765  :         __emit 0x6a

	DB	106					; 0000006aH

; 766  :         __emit 0x2f

	DB	47					; 0000002fH

; 767  :         __emit 0x01

	DB	1

; 768  :         __emit 0xa3

	DB	-93					; ffffffa3H

; 769  :         __emit 0x84

	DB	-124					; ffffff84H

; 770  :         __emit 0x6a

	DB	106					; 0000006aH

; 771  :         __emit 0x2f

	DB	47					; 0000002fH

; 772  :         __emit 0x01

	DB	1

; 773  :         __emit 0xa1

	DB	-95					; ffffffa1H

; 774  :         __emit 0xf4

	DB	-12					; fffffff4H

; 775  :         __emit 0x64

	DB	100					; 00000064H

; 776  :         __emit 0x2f

	DB	47					; 0000002fH

; 777  :         __emit 0x01

	DB	1

; 778  :         __emit 0x68

	DB	104					; 00000068H

; 779  :         __emit 0x60

	DB	96					; 00000060H

; 780  :         __emit 0x06

	DB	6

; 781  :         __emit 0x07

	DB	7

; 782  :         __emit 0x01

	DB	1

; 783  :         __emit 0x89

	DB	-119					; ffffff89H

; 784  :         __emit 0x15

	DB	21					; 00000015H

; 785  :         __emit 0xd0

	DB	-48					; ffffffd0H

; 786  :         __emit 0x64

	DB	100					; 00000064H

; 787  :         __emit 0x2f

	DB	47					; 0000002fH

; 788  :         __emit 0x01

	DB	1

; 789  :         __emit 0x89

	DB	-119					; ffffff89H

; 790  :         __emit 0x0d

	DB	13					; 0000000dH

; 791  :         __emit 0x80

	DB	-128					; ffffff80H

; 792  :         __emit 0x6a

	DB	106					; 0000006aH

; 793  :         __emit 0x2f

	DB	47					; 0000002fH

; 794  :         __emit 0x01

	DB	1

; 795  :         __emit 0xa3

	DB	-93					; ffffffa3H

; 796  :         __emit 0x88

	DB	-120					; ffffff88H

; 797  :         __emit 0x6a

	DB	106					; 0000006aH

; 798  :         __emit 0x2f

	DB	47					; 0000002fH

; 799  :         __emit 0x01

	DB	1

; 800  :         __emit 0x89

	DB	-119					; ffffff89H

; 801  :         __emit 0x15

	DB	21					; 00000015H

; 802  :         __emit 0xf4

	DB	-12					; fffffff4H

; 803  :         __emit 0x64

	DB	100					; 00000064H

; 804  :         __emit 0x2f

	DB	47					; 0000002fH

; 805  :         __emit 0x01

	DB	1

; 806  :         __emit 0xc7

	DB	-57					; ffffffc7H

; 807  :         __emit 0x05

	DB	5

; 808  :         __emit 0x7c

	DB	124					; 0000007cH

; 809  :         __emit 0x6a

	DB	106					; 0000006aH

; 810  :         __emit 0x2f

	DB	47					; 0000002fH

; 811  :         __emit 0x01

	DB	1

; 812  :         __emit 0xc4

	DB	-60					; ffffffc4H

; 813  :         __emit 0x13

	DB	19					; 00000013H

; 814  :         __emit 0x11

	DB	17					; 00000011H

; 815  :         __emit 0x01

	DB	1

; 816  :         __emit 0xe8

	DB	-24					; ffffffe8H

; 817  :         __emit 0x50

	DB	80					; 00000050H

; 818  :         __emit 0x6b

	DB	107					; 0000006bH

; 819  :         __emit 0x41

	DB	65					; 00000041H

; 820  :         __emit 0x00

	DB	0

; 821  :         __emit 0x83

	DB	-125					; ffffff83H

; 822  :         __emit 0xc4

	DB	-60					; ffffffc4H

; 823  :         __emit 0x04

	DB	4

; 824  :         __emit 0xb8

	DB	-72					; ffffffb8H

; 825  :         __emit 0x7c

	DB	124					; 0000007cH

; 826  :         __emit 0x6a

	DB	106					; 0000006aH

; 827  :         __emit 0x2f

	DB	47					; 0000002fH

; 828  :         __emit 0x01

	DB	1

; 829  :         __emit 0xc3

	DB	-61					; ffffffc3H
?getInstance@?$ConcreteModuleClass@V?$DefaultModuleTag@$02@FXParticleSystem@@@FXParticleSystem@@SAABV12@XZ ENDP ; FXParticleSystem::ConcreteModuleClass<FXParticleSystem::DefaultModuleTag<3> >::getInstance
_TEXT	ENDS
PUBLIC	??0?$ConcreteModuleClass@V?$DefaultModuleTag@$05@FXParticleSystem@@@FXParticleSystem@@AAE@XZ ; FXParticleSystem::ConcreteModuleClass<FXParticleSystem::DefaultModuleTag<6> >::ConcreteModuleClass<FXParticleSystem::DefaultModuleTag<6> >
; Function compile flags: /Ogty
;	COMDAT ??0?$ConcreteModuleClass@V?$DefaultModuleTag@$05@FXParticleSystem@@@FXParticleSystem@@AAE@XZ
_TEXT	SEGMENT
_this$ = -4						; size = 4
??0?$ConcreteModuleClass@V?$DefaultModuleTag@$05@FXParticleSystem@@@FXParticleSystem@@AAE@XZ PROC NEAR ; FXParticleSystem::ConcreteModuleClass<FXParticleSystem::DefaultModuleTag<6> >::ConcreteModuleClass<FXParticleSystem::DefaultModuleTag<6> >, COMDAT
; _this$ = ecx

; 836  :     __asm {
; 837  :         __emit 0x8b

	DB	-117					; ffffff8bH

; 838  :         __emit 0x15

	DB	21					; 00000015H

; 839  :         __emit 0x98

	DB	-104					; ffffff98H

; 840  :         __emit 0x6c

	DB	108					; 0000006cH

; 841  :         __emit 0x2f

	DB	47					; 0000002fH

; 842  :         __emit 0x01

	DB	1

; 843  :         __emit 0x8b

	DB	-117					; ffffff8bH

; 844  :         __emit 0x12

	DB	18					; 00000012H

; 845  :         __emit 0x8b

	DB	-117					; ffffff8bH

; 846  :         __emit 0xc1

	DB	-63					; ffffffc1H

; 847  :         __emit 0x8b

	DB	-117					; ffffff8bH

; 848  :         __emit 0x0d

	DB	13					; 0000000dH

; 849  :         __emit 0x9c

	DB	-100					; ffffff9cH

; 850  :         __emit 0x6c

	DB	108					; 0000006cH

; 851  :         __emit 0x2f

	DB	47					; 0000002fH

; 852  :         __emit 0x01

	DB	1

; 853  :         __emit 0x8b

	DB	-117					; ffffff8bH

; 854  :         __emit 0x09

	DB	9

; 855  :         __emit 0xa3

	DB	-93					; ffffffa3H

; 856  :         __emit 0xdc

	DB	-36					; ffffffdcH

; 857  :         __emit 0x64

	DB	100					; 00000064H

; 858  :         __emit 0x2f

	DB	47					; 0000002fH

; 859  :         __emit 0x01

	DB	1

; 860  :         __emit 0xc7

	DB	-57					; ffffffc7H

; 861  :         __emit 0x00

	DB	0

; 862  :         __emit 0x20

	DB	32					; 00000020H

; 863  :         __emit 0x08

	DB	8

; 864  :         __emit 0x11

	DB	17					; 00000011H

; 865  :         __emit 0x01

	DB	1

; 866  :         __emit 0x89

	DB	-119					; ffffff89H

; 867  :         __emit 0x50

	DB	80					; 00000050H

; 868  :         __emit 0x04

	DB	4

; 869  :         __emit 0x89

	DB	-119					; ffffff89H

; 870  :         __emit 0x48

	DB	72					; 00000048H

; 871  :         __emit 0x08

	DB	8

; 872  :         __emit 0x8b

	DB	-117					; ffffff8bH

; 873  :         __emit 0x0d

	DB	13					; 0000000dH

; 874  :         __emit 0x00

	DB	0

; 875  :         __emit 0x65

	DB	101					; 00000065H

; 876  :         __emit 0x2f

	DB	47					; 0000002fH

; 877  :         __emit 0x01

	DB	1

; 878  :         __emit 0x89

	DB	-119					; ffffff89H

; 879  :         __emit 0x48

	DB	72					; 00000048H

; 880  :         __emit 0x0c

	DB	12					; 0000000cH

; 881  :         __emit 0xa3

	DB	-93					; ffffffa3H

; 882  :         __emit 0x00

	DB	0

; 883  :         __emit 0x65

	DB	101					; 00000065H

; 884  :         __emit 0x2f

	DB	47					; 0000002fH

; 885  :         __emit 0x01

	DB	1

; 886  :         __emit 0xc7

	DB	-57					; ffffffc7H

; 887  :         __emit 0x00

	DB	0

; 888  :         __emit 0x38

	DB	56					; 00000038H

; 889  :         __emit 0x13

	DB	19					; 00000013H

; 890  :         __emit 0x11

	DB	17					; 00000011H

; 891  :         __emit 0x01

	DB	1

; 892  :         __emit 0xc3

	DB	-61					; ffffffc3H

; 893  :     }
; 894  : }

	mov	eax, DWORD PTR _this$[ebp]
??0?$ConcreteModuleClass@V?$DefaultModuleTag@$05@FXParticleSystem@@@FXParticleSystem@@AAE@XZ ENDP ; FXParticleSystem::ConcreteModuleClass<FXParticleSystem::DefaultModuleTag<6> >::ConcreteModuleClass<FXParticleSystem::DefaultModuleTag<6> >
_TEXT	ENDS
PUBLIC	??1?$ConcreteModuleClass@V?$DefaultModuleTag@$05@FXParticleSystem@@@FXParticleSystem@@QAE@XZ ; FXParticleSystem::ConcreteModuleClass<FXParticleSystem::DefaultModuleTag<6> >::~ConcreteModuleClass<FXParticleSystem::DefaultModuleTag<6> >
; Function compile flags: /Ogty
;	COMDAT ??1?$ConcreteModuleClass@V?$DefaultModuleTag@$05@FXParticleSystem@@@FXParticleSystem@@QAE@XZ
_TEXT	SEGMENT
??1?$ConcreteModuleClass@V?$DefaultModuleTag@$05@FXParticleSystem@@@FXParticleSystem@@QAE@XZ PROC NEAR ; FXParticleSystem::ConcreteModuleClass<FXParticleSystem::DefaultModuleTag<6> >::~ConcreteModuleClass<FXParticleSystem::DefaultModuleTag<6> >, COMDAT
; _this$ = ecx

; 899  :     __asm {
; 900  :         __emit 0xc7

	DB	-57					; ffffffc7H

; 901  :         __emit 0x01

	DB	1

; 902  :         __emit 0x20

	DB	32					; 00000020H

; 903  :         __emit 0x08

	DB	8

; 904  :         __emit 0x11

	DB	17					; 00000011H

; 905  :         __emit 0x01

	DB	1

; 906  :         __emit 0xc3

	DB	-61					; ffffffc3H
??1?$ConcreteModuleClass@V?$DefaultModuleTag@$05@FXParticleSystem@@@FXParticleSystem@@QAE@XZ ENDP ; FXParticleSystem::ConcreteModuleClass<FXParticleSystem::DefaultModuleTag<6> >::~ConcreteModuleClass<FXParticleSystem::DefaultModuleTag<6> >
_TEXT	ENDS
PUBLIC	?getClass@?$ConcreteModuleTemplate@V?$DefaultModuleTag@$05@FXParticleSystem@@@FXParticleSystem@@QBEABV?$ConcreteModuleClass@V?$DefaultModuleTag@$05@FXParticleSystem@@@2@XZ ; FXParticleSystem::ConcreteModuleTemplate<FXParticleSystem::DefaultModuleTag<6> >::getClass
; Function compile flags: /Ogty
;	COMDAT ?getClass@?$ConcreteModuleTemplate@V?$DefaultModuleTag@$05@FXParticleSystem@@@FXParticleSystem@@QBEABV?$ConcreteModuleClass@V?$DefaultModuleTag@$05@FXParticleSystem@@@2@XZ
_TEXT	SEGMENT
?getClass@?$ConcreteModuleTemplate@V?$DefaultModuleTag@$05@FXParticleSystem@@@FXParticleSystem@@QBEABV?$ConcreteModuleClass@V?$DefaultModuleTag@$05@FXParticleSystem@@@2@XZ PROC NEAR ; FXParticleSystem::ConcreteModuleTemplate<FXParticleSystem::DefaultModuleTag<6> >::getClass, COMDAT
; _this$ = ecx

; 913  :     __asm {
; 914  :         __emit 0xe9

	DB	-23					; ffffffe9H

; 915  :         __emit 0xda

	DB	-38					; ffffffdaH

; 916  :         __emit 0xc8

	DB	-56					; ffffffc8H

; 917  :         __emit 0xa4

	DB	-92					; ffffffa4H

; 918  :         __emit 0xff

	DB	-1
?getClass@?$ConcreteModuleTemplate@V?$DefaultModuleTag@$05@FXParticleSystem@@@FXParticleSystem@@QBEABV?$ConcreteModuleClass@V?$DefaultModuleTag@$05@FXParticleSystem@@@2@XZ ENDP ; FXParticleSystem::ConcreteModuleTemplate<FXParticleSystem::DefaultModuleTag<6> >::getClass
_TEXT	ENDS
PUBLIC	?getInstance@?$ConcreteModuleClass@V?$DefaultModuleTag@$05@FXParticleSystem@@@FXParticleSystem@@SAABV12@XZ ; FXParticleSystem::ConcreteModuleClass<FXParticleSystem::DefaultModuleTag<6> >::getInstance
; Function compile flags: /Ogty
;	COMDAT ?getInstance@?$ConcreteModuleClass@V?$DefaultModuleTag@$05@FXParticleSystem@@@FXParticleSystem@@SAABV12@XZ
_TEXT	SEGMENT
?getInstance@?$ConcreteModuleClass@V?$DefaultModuleTag@$05@FXParticleSystem@@@FXParticleSystem@@SAABV12@XZ PROC NEAR ; FXParticleSystem::ConcreteModuleClass<FXParticleSystem::DefaultModuleTag<6> >::getInstance, COMDAT

; 925  :     __asm {
; 926  :         __emit 0x8a

	DB	-118					; ffffff8aH

; 927  :         __emit 0x0d

	DB	13					; 0000000dH

; 928  :         __emit 0x88

	DB	-120					; ffffff88H

; 929  :         __emit 0x69

	DB	105					; 00000069H

; 930  :         __emit 0x2f

	DB	47					; 0000002fH

; 931  :         __emit 0x01

	DB	1

; 932  :         __emit 0xb8

	DB	-72					; ffffffb8H

; 933  :         __emit 0x01

	DB	1

; 934  :         __emit 0x00

	DB	0

; 935  :         __emit 0x00

	DB	0

; 936  :         __emit 0x00

	DB	0

; 937  :         __emit 0x84

	DB	-124					; ffffff84H

; 938  :         __emit 0xc8

	DB	-56					; ffffffc8H

; 939  :         __emit 0x75

	DB	117					; 00000075H

; 940  :         __emit 0x5a

	DB	90					; 0000005aH

; 941  :         __emit 0x8b

	DB	-117					; ffffff8bH

; 942  :         __emit 0x15

	DB	21					; 00000015H

; 943  :         __emit 0x88

	DB	-120					; ffffff88H

; 944  :         __emit 0x69

	DB	105					; 00000069H

; 945  :         __emit 0x2f

	DB	47					; 0000002fH

; 946  :         __emit 0x01

	DB	1

; 947  :         __emit 0x8b

	DB	-117					; ffffff8bH

; 948  :         __emit 0x0d

	DB	13					; 0000000dH

; 949  :         __emit 0x98

	DB	-104					; ffffff98H

; 950  :         __emit 0x6c

	DB	108					; 0000006cH

; 951  :         __emit 0x2f

	DB	47					; 0000002fH

; 952  :         __emit 0x01

	DB	1

; 953  :         __emit 0x8b

	DB	-117					; ffffff8bH

; 954  :         __emit 0x09

	DB	9

; 955  :         __emit 0x0b

	DB	11					; 0000000bH

; 956  :         __emit 0xd0

	DB	-48					; ffffffd0H

; 957  :         __emit 0xa1

	DB	-95					; ffffffa1H

; 958  :         __emit 0x9c

	DB	-100					; ffffff9cH

; 959  :         __emit 0x6c

	DB	108					; 0000006cH

; 960  :         __emit 0x2f

	DB	47					; 0000002fH

; 961  :         __emit 0x01

	DB	1

; 962  :         __emit 0x8b

	DB	-117					; ffffff8bH

; 963  :         __emit 0x00

	DB	0

; 964  :         __emit 0x89

	DB	-119					; ffffff89H

; 965  :         __emit 0x15

	DB	21					; 00000015H

; 966  :         __emit 0x88

	DB	-120					; ffffff88H

; 967  :         __emit 0x69

	DB	105					; 00000069H

; 968  :         __emit 0x2f

	DB	47					; 0000002fH

; 969  :         __emit 0x01

	DB	1

; 970  :         __emit 0xba

	DB	-70					; ffffffbaH

; 971  :         __emit 0x74

	DB	116					; 00000074H

; 972  :         __emit 0x69

	DB	105					; 00000069H

; 973  :         __emit 0x2f

	DB	47					; 0000002fH

; 974  :         __emit 0x01

	DB	1

; 975  :         __emit 0xa3

	DB	-93					; ffffffa3H

; 976  :         __emit 0x7c

	DB	124					; 0000007cH

; 977  :         __emit 0x69

	DB	105					; 00000069H

; 978  :         __emit 0x2f

	DB	47					; 0000002fH

; 979  :         __emit 0x01

	DB	1

; 980  :         __emit 0xa1

	DB	-95					; ffffffa1H

; 981  :         __emit 0x00

	DB	0

; 982  :         __emit 0x65

	DB	101					; 00000065H

; 983  :         __emit 0x2f

	DB	47					; 0000002fH

; 984  :         __emit 0x01

	DB	1

; 985  :         __emit 0x68

	DB	104					; 00000068H

; 986  :         __emit 0xf0

	DB	-16					; fffffff0H

; 987  :         __emit 0x04

	DB	4

; 988  :         __emit 0x07

	DB	7

; 989  :         __emit 0x01

	DB	1

; 990  :         __emit 0x89

	DB	-119					; ffffff89H

; 991  :         __emit 0x15

	DB	21					; 00000015H

; 992  :         __emit 0xdc

	DB	-36					; ffffffdcH

; 993  :         __emit 0x64

	DB	100					; 00000064H

; 994  :         __emit 0x2f

	DB	47					; 0000002fH

; 995  :         __emit 0x01

	DB	1

; 996  :         __emit 0x89

	DB	-119					; ffffff89H

; 997  :         __emit 0x0d

	DB	13					; 0000000dH

; 998  :         __emit 0x78

	DB	120					; 00000078H

; 999  :         __emit 0x69

	DB	105					; 00000069H

; 1000 :         __emit 0x2f

	DB	47					; 0000002fH

; 1001 :         __emit 0x01

	DB	1

; 1002 :         __emit 0xa3

	DB	-93					; ffffffa3H

; 1003 :         __emit 0x80

	DB	-128					; ffffff80H

; 1004 :         __emit 0x69

	DB	105					; 00000069H

; 1005 :         __emit 0x2f

	DB	47					; 0000002fH

; 1006 :         __emit 0x01

	DB	1

; 1007 :         __emit 0x89

	DB	-119					; ffffff89H

; 1008 :         __emit 0x15

	DB	21					; 00000015H

; 1009 :         __emit 0x00

	DB	0

; 1010 :         __emit 0x65

	DB	101					; 00000065H

; 1011 :         __emit 0x2f

	DB	47					; 0000002fH

; 1012 :         __emit 0x01

	DB	1

; 1013 :         __emit 0xc7

	DB	-57					; ffffffc7H

; 1014 :         __emit 0x05

	DB	5

; 1015 :         __emit 0x74

	DB	116					; 00000074H

; 1016 :         __emit 0x69

	DB	105					; 00000069H

; 1017 :         __emit 0x2f

	DB	47					; 0000002fH

; 1018 :         __emit 0x01

	DB	1

; 1019 :         __emit 0x38

	DB	56					; 00000038H

; 1020 :         __emit 0x13

	DB	19					; 00000013H

; 1021 :         __emit 0x11

	DB	17					; 00000011H

; 1022 :         __emit 0x01

	DB	1

; 1023 :         __emit 0xe8

	DB	-24					; ffffffe8H

; 1024 :         __emit 0xe0

	DB	-32					; ffffffe0H

; 1025 :         __emit 0x7e

	DB	126					; 0000007eH

; 1026 :         __emit 0x41

	DB	65					; 00000041H

; 1027 :         __emit 0x00

	DB	0

; 1028 :         __emit 0x83

	DB	-125					; ffffff83H

; 1029 :         __emit 0xc4

	DB	-60					; ffffffc4H

; 1030 :         __emit 0x04

	DB	4

; 1031 :         __emit 0xb8

	DB	-72					; ffffffb8H

; 1032 :         __emit 0x74

	DB	116					; 00000074H

; 1033 :         __emit 0x69

	DB	105					; 00000069H

; 1034 :         __emit 0x2f

	DB	47					; 0000002fH

; 1035 :         __emit 0x01

	DB	1

; 1036 :         __emit 0xc3

	DB	-61					; ffffffc3H
?getInstance@?$ConcreteModuleClass@V?$DefaultModuleTag@$05@FXParticleSystem@@@FXParticleSystem@@SAABV12@XZ ENDP ; FXParticleSystem::ConcreteModuleClass<FXParticleSystem::DefaultModuleTag<6> >::getInstance
_TEXT	ENDS
PUBLIC	??0?$ConcreteModuleClass@V?$DefaultModuleTag@$06@FXParticleSystem@@@FXParticleSystem@@AAE@XZ ; FXParticleSystem::ConcreteModuleClass<FXParticleSystem::DefaultModuleTag<7> >::ConcreteModuleClass<FXParticleSystem::DefaultModuleTag<7> >
; Function compile flags: /Ogty
;	COMDAT ??0?$ConcreteModuleClass@V?$DefaultModuleTag@$06@FXParticleSystem@@@FXParticleSystem@@AAE@XZ
_TEXT	SEGMENT
_this$ = -4						; size = 4
??0?$ConcreteModuleClass@V?$DefaultModuleTag@$06@FXParticleSystem@@@FXParticleSystem@@AAE@XZ PROC NEAR ; FXParticleSystem::ConcreteModuleClass<FXParticleSystem::DefaultModuleTag<7> >::ConcreteModuleClass<FXParticleSystem::DefaultModuleTag<7> >, COMDAT
; _this$ = ecx

; 1043 :     __asm {
; 1044 :         __emit 0x8b

	DB	-117					; ffffff8bH

; 1045 :         __emit 0x15

	DB	21					; 00000015H

; 1046 :         __emit 0x10

	DB	16					; 00000010H

; 1047 :         __emit 0x6d

	DB	109					; 0000006dH

; 1048 :         __emit 0x2f

	DB	47					; 0000002fH

; 1049 :         __emit 0x01

	DB	1

; 1050 :         __emit 0x8b

	DB	-117					; ffffff8bH

; 1051 :         __emit 0x12

	DB	18					; 00000012H

; 1052 :         __emit 0x8b

	DB	-117					; ffffff8bH

; 1053 :         __emit 0xc1

	DB	-63					; ffffffc1H

; 1054 :         __emit 0x8b

	DB	-117					; ffffff8bH

; 1055 :         __emit 0x0d

	DB	13					; 0000000dH

; 1056 :         __emit 0x14

	DB	20					; 00000014H

; 1057 :         __emit 0x6d

	DB	109					; 0000006dH

; 1058 :         __emit 0x2f

	DB	47					; 0000002fH

; 1059 :         __emit 0x01

	DB	1

; 1060 :         __emit 0x8b

	DB	-117					; ffffff8bH

; 1061 :         __emit 0x09

	DB	9

; 1062 :         __emit 0xa3

	DB	-93					; ffffffa3H

; 1063 :         __emit 0xe0

	DB	-32					; ffffffe0H

; 1064 :         __emit 0x64

	DB	100					; 00000064H

; 1065 :         __emit 0x2f

	DB	47					; 0000002fH

; 1066 :         __emit 0x01

	DB	1

; 1067 :         __emit 0xc7

	DB	-57					; ffffffc7H

; 1068 :         __emit 0x00

	DB	0

; 1069 :         __emit 0x68

	DB	104					; 00000068H

; 1070 :         __emit 0x08

	DB	8

; 1071 :         __emit 0x11

	DB	17					; 00000011H

; 1072 :         __emit 0x01

	DB	1

; 1073 :         __emit 0x89

	DB	-119					; ffffff89H

; 1074 :         __emit 0x50

	DB	80					; 00000050H

; 1075 :         __emit 0x04

	DB	4

; 1076 :         __emit 0x89

	DB	-119					; ffffff89H

; 1077 :         __emit 0x48

	DB	72					; 00000048H

; 1078 :         __emit 0x08

	DB	8

; 1079 :         __emit 0x8b

	DB	-117					; ffffff8bH

; 1080 :         __emit 0x0d

	DB	13					; 0000000dH

; 1081 :         __emit 0x04

	DB	4

; 1082 :         __emit 0x65

	DB	101					; 00000065H

; 1083 :         __emit 0x2f

	DB	47					; 0000002fH

; 1084 :         __emit 0x01

	DB	1

; 1085 :         __emit 0x89

	DB	-119					; ffffff89H

; 1086 :         __emit 0x48

	DB	72					; 00000048H

; 1087 :         __emit 0x0c

	DB	12					; 0000000cH

; 1088 :         __emit 0xa3

	DB	-93					; ffffffa3H

; 1089 :         __emit 0x04

	DB	4

; 1090 :         __emit 0x65

	DB	101					; 00000065H

; 1091 :         __emit 0x2f

	DB	47					; 0000002fH

; 1092 :         __emit 0x01

	DB	1

; 1093 :         __emit 0xc7

	DB	-57					; ffffffc7H

; 1094 :         __emit 0x00

	DB	0

; 1095 :         __emit 0xdc

	DB	-36					; ffffffdcH

; 1096 :         __emit 0x13

	DB	19					; 00000013H

; 1097 :         __emit 0x11

	DB	17					; 00000011H

; 1098 :         __emit 0x01

	DB	1

; 1099 :         __emit 0xc3

	DB	-61					; ffffffc3H

; 1100 :     }
; 1101 : }

	mov	eax, DWORD PTR _this$[ebp]
??0?$ConcreteModuleClass@V?$DefaultModuleTag@$06@FXParticleSystem@@@FXParticleSystem@@AAE@XZ ENDP ; FXParticleSystem::ConcreteModuleClass<FXParticleSystem::DefaultModuleTag<7> >::ConcreteModuleClass<FXParticleSystem::DefaultModuleTag<7> >
_TEXT	ENDS
PUBLIC	??1?$ConcreteModuleClass@V?$DefaultModuleTag@$06@FXParticleSystem@@@FXParticleSystem@@QAE@XZ ; FXParticleSystem::ConcreteModuleClass<FXParticleSystem::DefaultModuleTag<7> >::~ConcreteModuleClass<FXParticleSystem::DefaultModuleTag<7> >
; Function compile flags: /Ogty
;	COMDAT ??1?$ConcreteModuleClass@V?$DefaultModuleTag@$06@FXParticleSystem@@@FXParticleSystem@@QAE@XZ
_TEXT	SEGMENT
??1?$ConcreteModuleClass@V?$DefaultModuleTag@$06@FXParticleSystem@@@FXParticleSystem@@QAE@XZ PROC NEAR ; FXParticleSystem::ConcreteModuleClass<FXParticleSystem::DefaultModuleTag<7> >::~ConcreteModuleClass<FXParticleSystem::DefaultModuleTag<7> >, COMDAT
; _this$ = ecx

; 1106 :     __asm {
; 1107 :         __emit 0xc7

	DB	-57					; ffffffc7H

; 1108 :         __emit 0x01

	DB	1

; 1109 :         __emit 0x68

	DB	104					; 00000068H

; 1110 :         __emit 0x08

	DB	8

; 1111 :         __emit 0x11

	DB	17					; 00000011H

; 1112 :         __emit 0x01

	DB	1

; 1113 :         __emit 0xc3

	DB	-61					; ffffffc3H
??1?$ConcreteModuleClass@V?$DefaultModuleTag@$06@FXParticleSystem@@@FXParticleSystem@@QAE@XZ ENDP ; FXParticleSystem::ConcreteModuleClass<FXParticleSystem::DefaultModuleTag<7> >::~ConcreteModuleClass<FXParticleSystem::DefaultModuleTag<7> >
_TEXT	ENDS
PUBLIC	?getClass@?$ConcreteModuleTemplate@V?$DefaultModuleTag@$06@FXParticleSystem@@@FXParticleSystem@@QBEABV?$ConcreteModuleClass@V?$DefaultModuleTag@$06@FXParticleSystem@@@2@XZ ; FXParticleSystem::ConcreteModuleTemplate<FXParticleSystem::DefaultModuleTag<7> >::getClass
; Function compile flags: /Ogty
;	COMDAT ?getClass@?$ConcreteModuleTemplate@V?$DefaultModuleTag@$06@FXParticleSystem@@@FXParticleSystem@@QBEABV?$ConcreteModuleClass@V?$DefaultModuleTag@$06@FXParticleSystem@@@2@XZ
_TEXT	SEGMENT
?getClass@?$ConcreteModuleTemplate@V?$DefaultModuleTag@$06@FXParticleSystem@@@FXParticleSystem@@QBEABV?$ConcreteModuleClass@V?$DefaultModuleTag@$06@FXParticleSystem@@@2@XZ PROC NEAR ; FXParticleSystem::ConcreteModuleTemplate<FXParticleSystem::DefaultModuleTag<7> >::getClass, COMDAT
; _this$ = ecx

; 1120 :     __asm {
; 1121 :         __emit 0xe9

	DB	-23					; ffffffe9H

; 1122 :         __emit 0x02

	DB	2

; 1123 :         __emit 0x08

	DB	8

; 1124 :         __emit 0xa5

	DB	-91					; ffffffa5H

; 1125 :         __emit 0xff

	DB	-1
?getClass@?$ConcreteModuleTemplate@V?$DefaultModuleTag@$06@FXParticleSystem@@@FXParticleSystem@@QBEABV?$ConcreteModuleClass@V?$DefaultModuleTag@$06@FXParticleSystem@@@2@XZ ENDP ; FXParticleSystem::ConcreteModuleTemplate<FXParticleSystem::DefaultModuleTag<7> >::getClass
_TEXT	ENDS
PUBLIC	?getInstance@?$ConcreteModuleClass@V?$DefaultModuleTag@$06@FXParticleSystem@@@FXParticleSystem@@SAABV12@XZ ; FXParticleSystem::ConcreteModuleClass<FXParticleSystem::DefaultModuleTag<7> >::getInstance
; Function compile flags: /Ogty
;	COMDAT ?getInstance@?$ConcreteModuleClass@V?$DefaultModuleTag@$06@FXParticleSystem@@@FXParticleSystem@@SAABV12@XZ
_TEXT	SEGMENT
?getInstance@?$ConcreteModuleClass@V?$DefaultModuleTag@$06@FXParticleSystem@@@FXParticleSystem@@SAABV12@XZ PROC NEAR ; FXParticleSystem::ConcreteModuleClass<FXParticleSystem::DefaultModuleTag<7> >::getInstance, COMDAT

; 1132 :     __asm {
; 1133 :         __emit 0x8a

	DB	-118					; ffffff8aH

; 1134 :         __emit 0x0d

	DB	13					; 0000000dH

; 1135 :         __emit 0xf0

	DB	-16					; fffffff0H

; 1136 :         __emit 0x6a

	DB	106					; 0000006aH

; 1137 :         __emit 0x2f

	DB	47					; 0000002fH

; 1138 :         __emit 0x01

	DB	1

; 1139 :         __emit 0xb8

	DB	-72					; ffffffb8H

; 1140 :         __emit 0x01

	DB	1

; 1141 :         __emit 0x00

	DB	0

; 1142 :         __emit 0x00

	DB	0

; 1143 :         __emit 0x00

	DB	0

; 1144 :         __emit 0x84

	DB	-124					; ffffff84H

; 1145 :         __emit 0xc8

	DB	-56					; ffffffc8H

; 1146 :         __emit 0x75

	DB	117					; 00000075H

; 1147 :         __emit 0x5a

	DB	90					; 0000005aH

; 1148 :         __emit 0x8b

	DB	-117					; ffffff8bH

; 1149 :         __emit 0x15

	DB	21					; 00000015H

; 1150 :         __emit 0xf0

	DB	-16					; fffffff0H

; 1151 :         __emit 0x6a

	DB	106					; 0000006aH

; 1152 :         __emit 0x2f

	DB	47					; 0000002fH

; 1153 :         __emit 0x01

	DB	1

; 1154 :         __emit 0x8b

	DB	-117					; ffffff8bH

; 1155 :         __emit 0x0d

	DB	13					; 0000000dH

; 1156 :         __emit 0x10

	DB	16					; 00000010H

; 1157 :         __emit 0x6d

	DB	109					; 0000006dH

; 1158 :         __emit 0x2f

	DB	47					; 0000002fH

; 1159 :         __emit 0x01

	DB	1

; 1160 :         __emit 0x8b

	DB	-117					; ffffff8bH

; 1161 :         __emit 0x09

	DB	9

; 1162 :         __emit 0x0b

	DB	11					; 0000000bH

; 1163 :         __emit 0xd0

	DB	-48					; ffffffd0H

; 1164 :         __emit 0xa1

	DB	-95					; ffffffa1H

; 1165 :         __emit 0x14

	DB	20					; 00000014H

; 1166 :         __emit 0x6d

	DB	109					; 0000006dH

; 1167 :         __emit 0x2f

	DB	47					; 0000002fH

; 1168 :         __emit 0x01

	DB	1

; 1169 :         __emit 0x8b

	DB	-117					; ffffff8bH

; 1170 :         __emit 0x00

	DB	0

; 1171 :         __emit 0x89

	DB	-119					; ffffff89H

; 1172 :         __emit 0x15

	DB	21					; 00000015H

; 1173 :         __emit 0xf0

	DB	-16					; fffffff0H

; 1174 :         __emit 0x6a

	DB	106					; 0000006aH

; 1175 :         __emit 0x2f

	DB	47					; 0000002fH

; 1176 :         __emit 0x01

	DB	1

; 1177 :         __emit 0xba

	DB	-70					; ffffffbaH

; 1178 :         __emit 0xdc

	DB	-36					; ffffffdcH

; 1179 :         __emit 0x6a

	DB	106					; 0000006aH

; 1180 :         __emit 0x2f

	DB	47					; 0000002fH

; 1181 :         __emit 0x01

	DB	1

; 1182 :         __emit 0xa3

	DB	-93					; ffffffa3H

; 1183 :         __emit 0xe4

	DB	-28					; ffffffe4H

; 1184 :         __emit 0x6a

	DB	106					; 0000006aH

; 1185 :         __emit 0x2f

	DB	47					; 0000002fH

; 1186 :         __emit 0x01

	DB	1

; 1187 :         __emit 0xa1

	DB	-95					; ffffffa1H

; 1188 :         __emit 0x04

	DB	4

; 1189 :         __emit 0x65

	DB	101					; 00000065H

; 1190 :         __emit 0x2f

	DB	47					; 0000002fH

; 1191 :         __emit 0x01

	DB	1

; 1192 :         __emit 0x68

	DB	104					; 00000068H

; 1193 :         __emit 0x00

	DB	0

; 1194 :         __emit 0x06

	DB	6

; 1195 :         __emit 0x07

	DB	7

; 1196 :         __emit 0x01

	DB	1

; 1197 :         __emit 0x89

	DB	-119					; ffffff89H

; 1198 :         __emit 0x15

	DB	21					; 00000015H

; 1199 :         __emit 0xe0

	DB	-32					; ffffffe0H

; 1200 :         __emit 0x64

	DB	100					; 00000064H

; 1201 :         __emit 0x2f

	DB	47					; 0000002fH

; 1202 :         __emit 0x01

	DB	1

; 1203 :         __emit 0x89

	DB	-119					; ffffff89H

; 1204 :         __emit 0x0d

	DB	13					; 0000000dH

; 1205 :         __emit 0xe0

	DB	-32					; ffffffe0H

; 1206 :         __emit 0x6a

	DB	106					; 0000006aH

; 1207 :         __emit 0x2f

	DB	47					; 0000002fH

; 1208 :         __emit 0x01

	DB	1

; 1209 :         __emit 0xa3

	DB	-93					; ffffffa3H

; 1210 :         __emit 0xe8

	DB	-24					; ffffffe8H

; 1211 :         __emit 0x6a

	DB	106					; 0000006aH

; 1212 :         __emit 0x2f

	DB	47					; 0000002fH

; 1213 :         __emit 0x01

	DB	1

; 1214 :         __emit 0x89

	DB	-119					; ffffff89H

; 1215 :         __emit 0x15

	DB	21					; 00000015H

; 1216 :         __emit 0x04

	DB	4

; 1217 :         __emit 0x65

	DB	101					; 00000065H

; 1218 :         __emit 0x2f

	DB	47					; 0000002fH

; 1219 :         __emit 0x01

	DB	1

; 1220 :         __emit 0xc7

	DB	-57					; ffffffc7H

; 1221 :         __emit 0x05

	DB	5

; 1222 :         __emit 0xdc

	DB	-36					; ffffffdcH

; 1223 :         __emit 0x6a

	DB	106					; 0000006aH

; 1224 :         __emit 0x2f

	DB	47					; 0000002fH

; 1225 :         __emit 0x01

	DB	1

; 1226 :         __emit 0xdc

	DB	-36					; ffffffdcH

; 1227 :         __emit 0x13

	DB	19					; 00000013H

; 1228 :         __emit 0x11

	DB	17					; 00000011H

; 1229 :         __emit 0x01

	DB	1

; 1230 :         __emit 0xe8

	DB	-24					; ffffffe8H

; 1231 :         __emit 0x30

	DB	48					; 00000030H

; 1232 :         __emit 0x66

	DB	102					; 00000066H

; 1233 :         __emit 0x41

	DB	65					; 00000041H

; 1234 :         __emit 0x00

	DB	0

; 1235 :         __emit 0x83

	DB	-125					; ffffff83H

; 1236 :         __emit 0xc4

	DB	-60					; ffffffc4H

; 1237 :         __emit 0x04

	DB	4

; 1238 :         __emit 0xb8

	DB	-72					; ffffffb8H

; 1239 :         __emit 0xdc

	DB	-36					; ffffffdcH

; 1240 :         __emit 0x6a

	DB	106					; 0000006aH

; 1241 :         __emit 0x2f

	DB	47					; 0000002fH

; 1242 :         __emit 0x01

	DB	1

; 1243 :         __emit 0xc3

	DB	-61					; ffffffc3H
?getInstance@?$ConcreteModuleClass@V?$DefaultModuleTag@$06@FXParticleSystem@@@FXParticleSystem@@SAABV12@XZ ENDP ; FXParticleSystem::ConcreteModuleClass<FXParticleSystem::DefaultModuleTag<7> >::getInstance
_TEXT	ENDS
PUBLIC	??0?$ConcreteModuleClass@V?$ModuleTag@$01$E?RENDEROBJECT_UPDATE_MODULE_KEY@FXParticleSystem@@3QBDB$E?RENDEROBJECT_UPDATE_MODULE_NAME@2@3QBDBVRenderObjectUpdateModule@2@VRenderObjectUpdateModuleTemplate@2@VRenderObjectParticleUpdateModule@2@VRenderObjectParticleUpdateModuleTemplate@2@@FXParticleSystem@@@FXParticleSystem@@AAE@XZ ; FXParticleSystem::RENDEROBJECT_UPDATE_MODULE_KEY::ConcreteModuleClass::ConcreteModuleClass
; Function compile flags: /Ogty
;	COMDAT ??0?$ConcreteModuleClass@V?$ModuleTag@$01$E?RENDEROBJECT_UPDATE_MODULE_KEY@FXParticleSystem@@3QBDB$E?RENDEROBJECT_UPDATE_MODULE_NAME@2@3QBDBVRenderObjectUpdateModule@2@VRenderObjectUpdateModuleTemplate@2@VRenderObjectParticleUpdateModule@2@VRenderObjectParticleUpdateModuleTemplate@2@@FXParticleSystem@@@FXParticleSystem@@AAE@XZ
_TEXT	SEGMENT
_this$ = -4						; size = 4
??0?$ConcreteModuleClass@V?$ModuleTag@$01$E?RENDEROBJECT_UPDATE_MODULE_KEY@FXParticleSystem@@3QBDB$E?RENDEROBJECT_UPDATE_MODULE_NAME@2@3QBDBVRenderObjectUpdateModule@2@VRenderObjectUpdateModuleTemplate@2@VRenderObjectParticleUpdateModule@2@VRenderObjectParticleUpdateModuleTemplate@2@@FXParticleSystem@@@FXParticleSystem@@AAE@XZ PROC NEAR ; FXParticleSystem::RENDEROBJECT_UPDATE_MODULE_KEY::ConcreteModuleClass::ConcreteModuleClass, COMDAT
; _this$ = ecx

; 1250 :     __asm {
; 1251 :         __emit 0x8b

	DB	-117					; ffffff8bH

; 1252 :         __emit 0x15

	DB	21					; 00000015H

; 1253 :         __emit 0x20

	DB	32					; 00000020H

; 1254 :         __emit 0x6d

	DB	109					; 0000006dH

; 1255 :         __emit 0x2f

	DB	47					; 0000002fH

; 1256 :         __emit 0x01

	DB	1

; 1257 :         __emit 0x8b

	DB	-117					; ffffff8bH

; 1258 :         __emit 0x12

	DB	18					; 00000012H

; 1259 :         __emit 0x8b

	DB	-117					; ffffff8bH

; 1260 :         __emit 0xc1

	DB	-63					; ffffffc1H

; 1261 :         __emit 0x8b

	DB	-117					; ffffff8bH

; 1262 :         __emit 0x0d

	DB	13					; 0000000dH

; 1263 :         __emit 0x24

	DB	36					; 00000024H

; 1264 :         __emit 0x6d

	DB	109					; 0000006dH

; 1265 :         __emit 0x2f

	DB	47					; 0000002fH

; 1266 :         __emit 0x01

	DB	1

; 1267 :         __emit 0x8b

	DB	-117					; ffffff8bH

; 1268 :         __emit 0x09

	DB	9

; 1269 :         __emit 0xc7

	DB	-57					; ffffffc7H

; 1270 :         __emit 0x00

	DB	0

; 1271 :         __emit 0x5c

	DB	92					; 0000005cH

; 1272 :         __emit 0x08

	DB	8

; 1273 :         __emit 0x11

	DB	17					; 00000011H

; 1274 :         __emit 0x01

	DB	1

; 1275 :         __emit 0x89

	DB	-119					; ffffff89H

; 1276 :         __emit 0x50

	DB	80					; 00000050H

; 1277 :         __emit 0x04

	DB	4

; 1278 :         __emit 0x89

	DB	-119					; ffffff89H

; 1279 :         __emit 0x48

	DB	72					; 00000048H

; 1280 :         __emit 0x08

	DB	8

; 1281 :         __emit 0x8b

	DB	-117					; ffffff8bH

; 1282 :         __emit 0x0d

	DB	13					; 0000000dH

; 1283 :         __emit 0xf0

	DB	-16					; fffffff0H

; 1284 :         __emit 0x64

	DB	100					; 00000064H

; 1285 :         __emit 0x2f

	DB	47					; 0000002fH

; 1286 :         __emit 0x01

	DB	1

; 1287 :         __emit 0x89

	DB	-119					; ffffff89H

; 1288 :         __emit 0x48

	DB	72					; 00000048H

; 1289 :         __emit 0x0c

	DB	12					; 0000000cH

; 1290 :         __emit 0xa3

	DB	-93					; ffffffa3H

; 1291 :         __emit 0xf0

	DB	-16					; fffffff0H

; 1292 :         __emit 0x64

	DB	100					; 00000064H

; 1293 :         __emit 0x2f

	DB	47					; 0000002fH

; 1294 :         __emit 0x01

	DB	1

; 1295 :         __emit 0xc7

	DB	-57					; ffffffc7H

; 1296 :         __emit 0x00

	DB	0

; 1297 :         __emit 0xd0

	DB	-48					; ffffffd0H

; 1298 :         __emit 0x0e

	DB	14					; 0000000eH

; 1299 :         __emit 0x11

	DB	17					; 00000011H

; 1300 :         __emit 0x01

	DB	1

; 1301 :         __emit 0xc3

	DB	-61					; ffffffc3H

; 1302 :     }
; 1303 : }

	mov	eax, DWORD PTR _this$[ebp]
??0?$ConcreteModuleClass@V?$ModuleTag@$01$E?RENDEROBJECT_UPDATE_MODULE_KEY@FXParticleSystem@@3QBDB$E?RENDEROBJECT_UPDATE_MODULE_NAME@2@3QBDBVRenderObjectUpdateModule@2@VRenderObjectUpdateModuleTemplate@2@VRenderObjectParticleUpdateModule@2@VRenderObjectParticleUpdateModuleTemplate@2@@FXParticleSystem@@@FXParticleSystem@@AAE@XZ ENDP ; FXParticleSystem::RENDEROBJECT_UPDATE_MODULE_KEY::ConcreteModuleClass::ConcreteModuleClass
_TEXT	ENDS
PUBLIC	??1?$ConcreteModuleClass@V?$ModuleTag@$01$E?RENDEROBJECT_UPDATE_MODULE_KEY@FXParticleSystem@@3QBDB$E?RENDEROBJECT_UPDATE_MODULE_NAME@2@3QBDBVRenderObjectUpdateModule@2@VRenderObjectUpdateModuleTemplate@2@VRenderObjectParticleUpdateModule@2@VRenderObjectParticleUpdateModuleTemplate@2@@FXParticleSystem@@@FXParticleSystem@@QAE@XZ ; FXParticleSystem::RENDEROBJECT_UPDATE_MODULE_KEY::ConcreteModuleClass::~ConcreteModuleClass
; Function compile flags: /Ogty
;	COMDAT ??1?$ConcreteModuleClass@V?$ModuleTag@$01$E?RENDEROBJECT_UPDATE_MODULE_KEY@FXParticleSystem@@3QBDB$E?RENDEROBJECT_UPDATE_MODULE_NAME@2@3QBDBVRenderObjectUpdateModule@2@VRenderObjectUpdateModuleTemplate@2@VRenderObjectParticleUpdateModule@2@VRenderObjectParticleUpdateModuleTemplate@2@@FXParticleSystem@@@FXParticleSystem@@QAE@XZ
_TEXT	SEGMENT
??1?$ConcreteModuleClass@V?$ModuleTag@$01$E?RENDEROBJECT_UPDATE_MODULE_KEY@FXParticleSystem@@3QBDB$E?RENDEROBJECT_UPDATE_MODULE_NAME@2@3QBDBVRenderObjectUpdateModule@2@VRenderObjectUpdateModuleTemplate@2@VRenderObjectParticleUpdateModule@2@VRenderObjectParticleUpdateModuleTemplate@2@@FXParticleSystem@@@FXParticleSystem@@QAE@XZ PROC NEAR ; FXParticleSystem::RENDEROBJECT_UPDATE_MODULE_KEY::ConcreteModuleClass::~ConcreteModuleClass, COMDAT
; _this$ = ecx

; 1308 :     __asm {
; 1309 :         __emit 0xc7

	DB	-57					; ffffffc7H

; 1310 :         __emit 0x01

	DB	1

; 1311 :         __emit 0x5c

	DB	92					; 0000005cH

; 1312 :         __emit 0x08

	DB	8

; 1313 :         __emit 0x11

	DB	17					; 00000011H

; 1314 :         __emit 0x01

	DB	1

; 1315 :         __emit 0xc3

	DB	-61					; ffffffc3H
??1?$ConcreteModuleClass@V?$ModuleTag@$01$E?RENDEROBJECT_UPDATE_MODULE_KEY@FXParticleSystem@@3QBDB$E?RENDEROBJECT_UPDATE_MODULE_NAME@2@3QBDBVRenderObjectUpdateModule@2@VRenderObjectUpdateModuleTemplate@2@VRenderObjectParticleUpdateModule@2@VRenderObjectParticleUpdateModuleTemplate@2@@FXParticleSystem@@@FXParticleSystem@@QAE@XZ ENDP ; FXParticleSystem::RENDEROBJECT_UPDATE_MODULE_KEY::ConcreteModuleClass::~ConcreteModuleClass
_TEXT	ENDS
PUBLIC	?createTemplate@?$ConcreteModuleClass@V?$ModuleTag@$01$E?RENDEROBJECT_UPDATE_MODULE_KEY@FXParticleSystem@@3QBDB$E?RENDEROBJECT_UPDATE_MODULE_NAME@2@3QBDBVRenderObjectUpdateModule@2@VRenderObjectUpdateModuleTemplate@2@VRenderObjectParticleUpdateModule@2@VRenderObjectParticleUpdateModuleTemplate@2@@FXParticleSystem@@@FXParticleSystem@@QBEPAVRenderObjectUpdateModuleTemplate@2@PAVINI@@@Z ; FXParticleSystem::RENDEROBJECT_UPDATE_MODULE_KEY::ConcreteModuleClass::createTemplate
; Function compile flags: /Ogty
;	COMDAT ?createTemplate@?$ConcreteModuleClass@V?$ModuleTag@$01$E?RENDEROBJECT_UPDATE_MODULE_KEY@FXParticleSystem@@3QBDB$E?RENDEROBJECT_UPDATE_MODULE_NAME@2@3QBDBVRenderObjectUpdateModule@2@VRenderObjectUpdateModuleTemplate@2@VRenderObjectParticleUpdateModule@2@VRenderObjectParticleUpdateModuleTemplate@2@@FXParticleSystem@@@FXParticleSystem@@QBEPAVRenderObjectUpdateModuleTemplate@2@PAVINI@@@Z
_TEXT	SEGMENT
_ini$ = 8						; size = 4
?createTemplate@?$ConcreteModuleClass@V?$ModuleTag@$01$E?RENDEROBJECT_UPDATE_MODULE_KEY@FXParticleSystem@@3QBDB$E?RENDEROBJECT_UPDATE_MODULE_NAME@2@3QBDBVRenderObjectUpdateModule@2@VRenderObjectUpdateModuleTemplate@2@VRenderObjectParticleUpdateModule@2@VRenderObjectParticleUpdateModuleTemplate@2@@FXParticleSystem@@@FXParticleSystem@@QBEPAVRenderObjectUpdateModuleTemplate@2@PAVINI@@@Z PROC NEAR ; FXParticleSystem::RENDEROBJECT_UPDATE_MODULE_KEY::ConcreteModuleClass::createTemplate, COMDAT
; _this$ = ecx

; 1322 :     __asm {
; 1323 :         __emit 0x6a

	DB	106					; 0000006aH

; 1324 :         __emit 0xff

	DB	-1

; 1325 :         __emit 0x68

	DB	104					; 00000068H

; 1326 :         __emit 0xa3

	DB	-93					; ffffffa3H

; 1327 :         __emit 0xb2

	DB	-78					; ffffffb2H

; 1328 :         __emit 0x03

	DB	3

; 1329 :         __emit 0x01

	DB	1

; 1330 :         __emit 0x64

	DB	100					; 00000064H

; 1331 :         __emit 0xa1

	DB	-95					; ffffffa1H

; 1332 :         __emit 0x00

	DB	0

; 1333 :         __emit 0x00

	DB	0

; 1334 :         __emit 0x00

	DB	0

; 1335 :         __emit 0x00

	DB	0

; 1336 :         __emit 0x50

	DB	80					; 00000050H

; 1337 :         __emit 0x64

	DB	100					; 00000064H

; 1338 :         __emit 0x89

	DB	-119					; ffffff89H

; 1339 :         __emit 0x25

	DB	37					; 00000025H

; 1340 :         __emit 0x00

	DB	0

; 1341 :         __emit 0x00

	DB	0

; 1342 :         __emit 0x00

	DB	0

; 1343 :         __emit 0x00

	DB	0

; 1344 :         __emit 0x51

	DB	81					; 00000051H

; 1345 :         __emit 0x56

	DB	86					; 00000056H

; 1346 :         __emit 0x68

	DB	104					; 00000068H

; 1347 :         __emit 0xa0

	DB	-96					; ffffffa0H

; 1348 :         __emit 0x00

	DB	0

; 1349 :         __emit 0x00

	DB	0

; 1350 :         __emit 0x00

	DB	0

; 1351 :         __emit 0xe8

	DB	-24					; ffffffe8H

; 1352 :         __emit 0xcf

	DB	-49					; ffffffcfH

; 1353 :         __emit 0x15

	DB	21					; 00000015H

; 1354 :         __emit 0x2a

	DB	42					; 0000002aH

; 1355 :         __emit 0x00

	DB	0

; 1356 :         __emit 0x8b

	DB	-117					; ffffff8bH

; 1357 :         __emit 0xf0

	DB	-16					; fffffff0H

; 1358 :         __emit 0x83

	DB	-125					; ffffff83H

; 1359 :         __emit 0xc4

	DB	-60					; ffffffc4H

; 1360 :         __emit 0x04

	DB	4

; 1361 :         __emit 0x89

	DB	-119					; ffffff89H

; 1362 :         __emit 0x74

	DB	116					; 00000074H

; 1363 :         __emit 0x24

	DB	36					; 00000024H

; 1364 :         __emit 0x04

	DB	4

; 1365 :         __emit 0x85

	DB	-123					; ffffff85H

; 1366 :         __emit 0xf6

	DB	-10					; fffffff6H

; 1367 :         __emit 0xc7

	DB	-57					; ffffffc7H

; 1368 :         __emit 0x44

	DB	68					; 00000044H

; 1369 :         __emit 0x24

	DB	36					; 00000024H

; 1370 :         __emit 0x10

	DB	16					; 00000010H

; 1371 :         __emit 0x00

	DB	0

; 1372 :         __emit 0x00

	DB	0

; 1373 :         __emit 0x00

	DB	0

; 1374 :         __emit 0x00

	DB	0

; 1375 :         __emit 0x74

	DB	116					; 00000074H

; 1376 :         __emit 0x1d

	DB	29					; 0000001dH

; 1377 :         __emit 0x8b

	DB	-117					; ffffff8bH

; 1378 :         __emit 0xce

	DB	-50					; ffffffceH

; 1379 :         __emit 0xe8

	DB	-24					; ffffffe8H

; 1380 :         __emit 0x13

	DB	19					; 00000013H

; 1381 :         __emit 0x4b

	DB	75					; 0000004bH

; 1382 :         __emit 0xa5

	DB	-91					; ffffffa5H

; 1383 :         __emit 0xff

	DB	-1

; 1384 :         __emit 0xc7

	DB	-57					; ffffffc7H

; 1385 :         __emit 0x06

	DB	6

; 1386 :         __emit 0x74

	DB	116					; 00000074H

; 1387 :         __emit 0x10

	DB	16					; 00000010H

; 1388 :         __emit 0x11

	DB	17					; 00000011H

; 1389 :         __emit 0x01

	DB	1

; 1390 :         __emit 0xc7

	DB	-57					; ffffffc7H

; 1391 :         __emit 0x46

	DB	70					; 00000046H

; 1392 :         __emit 0x04

	DB	4

; 1393 :         __emit 0x70

	DB	112					; 00000070H

; 1394 :         __emit 0x10

	DB	16					; 00000010H

; 1395 :         __emit 0x11

	DB	17					; 00000011H

; 1396 :         __emit 0x01

	DB	1

; 1397 :         __emit 0xc7

	DB	-57					; ffffffc7H

; 1398 :         __emit 0x46

	DB	70					; 00000046H

; 1399 :         __emit 0x08

	DB	8

; 1400 :         __emit 0x5c

	DB	92					; 0000005cH

; 1401 :         __emit 0x10

	DB	16					; 00000010H

; 1402 :         __emit 0x11

	DB	17					; 00000011H

; 1403 :         __emit 0x01

	DB	1

; 1404 :         __emit 0xeb

	DB	-21					; ffffffebH

; 1405 :         __emit 0x02

	DB	2

; 1406 :         __emit 0x33

	DB	51					; 00000033H

; 1407 :         __emit 0xf6

	DB	-10					; fffffff6H

; 1408 :         __emit 0x89

	DB	-119					; ffffff89H

; 1409 :         __emit 0x74

	DB	116					; 00000074H

; 1410 :         __emit 0x24

	DB	36					; 00000024H

; 1411 :         __emit 0x04

	DB	4

; 1412 :         __emit 0x8b

	DB	-117					; ffffff8bH

; 1413 :         __emit 0x44

	DB	68					; 00000044H

; 1414 :         __emit 0x24

	DB	36					; 00000024H

; 1415 :         __emit 0x18

	DB	24					; 00000018H

; 1416 :         __emit 0x50

	DB	80					; 00000050H

; 1417 :         __emit 0x8b

	DB	-117					; ffffff8bH

; 1418 :         __emit 0xce

	DB	-50					; ffffffceH

; 1419 :         __emit 0xc7

	DB	-57					; ffffffc7H

; 1420 :         __emit 0x44

	DB	68					; 00000044H

; 1421 :         __emit 0x24

	DB	36					; 00000024H

; 1422 :         __emit 0x14

	DB	20					; 00000014H

; 1423 :         __emit 0x01

	DB	1

; 1424 :         __emit 0x00

	DB	0

; 1425 :         __emit 0x00

	DB	0

; 1426 :         __emit 0x00

	DB	0

; 1427 :         __emit 0xe8

	DB	-24					; ffffffe8H

; 1428 :         __emit 0x8f

	DB	-113					; ffffff8fH

; 1429 :         __emit 0x24

	DB	36					; 00000024H

; 1430 :         __emit 0xa2

	DB	-94					; ffffffa2H

; 1431 :         __emit 0xff

	DB	-1

; 1432 :         __emit 0x8b

	DB	-117					; ffffff8bH

; 1433 :         __emit 0x4c

	DB	76					; 0000004cH

; 1434 :         __emit 0x24

	DB	36					; 00000024H

; 1435 :         __emit 0x08

	DB	8

; 1436 :         __emit 0x8b

	DB	-117					; ffffff8bH

; 1437 :         __emit 0xc6

	DB	-58					; ffffffc6H

; 1438 :         __emit 0x5e

	DB	94					; 0000005eH

; 1439 :         __emit 0x64

	DB	100					; 00000064H

; 1440 :         __emit 0x89

	DB	-119					; ffffff89H

; 1441 :         __emit 0x0d

	DB	13					; 0000000dH

; 1442 :         __emit 0x00

	DB	0

; 1443 :         __emit 0x00

	DB	0

; 1444 :         __emit 0x00

	DB	0

; 1445 :         __emit 0x00

	DB	0

; 1446 :         __emit 0x83

	DB	-125					; ffffff83H

; 1447 :         __emit 0xc4

	DB	-60					; ffffffc4H

; 1448 :         __emit 0x10

	DB	16					; 00000010H

; 1449 :         __emit 0xc2

	DB	-62					; ffffffc2H

; 1450 :         __emit 0x04

	DB	4

; 1451 :         __emit 0x00

	DB	0
?createTemplate@?$ConcreteModuleClass@V?$ModuleTag@$01$E?RENDEROBJECT_UPDATE_MODULE_KEY@FXParticleSystem@@3QBDB$E?RENDEROBJECT_UPDATE_MODULE_NAME@2@3QBDBVRenderObjectUpdateModule@2@VRenderObjectUpdateModuleTemplate@2@VRenderObjectParticleUpdateModule@2@VRenderObjectParticleUpdateModuleTemplate@2@@FXParticleSystem@@@FXParticleSystem@@QBEPAVRenderObjectUpdateModuleTemplate@2@PAVINI@@@Z ENDP ; FXParticleSystem::RENDEROBJECT_UPDATE_MODULE_KEY::ConcreteModuleClass::createTemplate
_TEXT	ENDS
PUBLIC	?createTemplate@?$ConcreteModuleClass@V?$ModuleTag@$01$E?RENDEROBJECT_UPDATE_MODULE_KEY@FXParticleSystem@@3QBDB$E?RENDEROBJECT_UPDATE_MODULE_NAME@2@3QBDBVRenderObjectUpdateModule@2@VRenderObjectUpdateModuleTemplate@2@VRenderObjectParticleUpdateModule@2@VRenderObjectParticleUpdateModuleTemplate@2@@FXParticleSystem@@@FXParticleSystem@@QBEPAVRenderObjectUpdateModuleTemplate@2@XZ ; FXParticleSystem::RENDEROBJECT_UPDATE_MODULE_KEY::ConcreteModuleClass::createTemplate
; Function compile flags: /Ogty
;	COMDAT ?createTemplate@?$ConcreteModuleClass@V?$ModuleTag@$01$E?RENDEROBJECT_UPDATE_MODULE_KEY@FXParticleSystem@@3QBDB$E?RENDEROBJECT_UPDATE_MODULE_NAME@2@3QBDBVRenderObjectUpdateModule@2@VRenderObjectUpdateModuleTemplate@2@VRenderObjectParticleUpdateModule@2@VRenderObjectParticleUpdateModuleTemplate@2@@FXParticleSystem@@@FXParticleSystem@@QBEPAVRenderObjectUpdateModuleTemplate@2@XZ
_TEXT	SEGMENT
?createTemplate@?$ConcreteModuleClass@V?$ModuleTag@$01$E?RENDEROBJECT_UPDATE_MODULE_KEY@FXParticleSystem@@3QBDB$E?RENDEROBJECT_UPDATE_MODULE_NAME@2@3QBDBVRenderObjectUpdateModule@2@VRenderObjectUpdateModuleTemplate@2@VRenderObjectParticleUpdateModule@2@VRenderObjectParticleUpdateModuleTemplate@2@@FXParticleSystem@@@FXParticleSystem@@QBEPAVRenderObjectUpdateModuleTemplate@2@XZ PROC NEAR ; FXParticleSystem::RENDEROBJECT_UPDATE_MODULE_KEY::ConcreteModuleClass::createTemplate, COMDAT
; _this$ = ecx

; 1458 :     __asm {
; 1459 :         __emit 0x6a

	DB	106					; 0000006aH

; 1460 :         __emit 0xff

	DB	-1

; 1461 :         __emit 0x68

	DB	104					; 00000068H

; 1462 :         __emit 0xcb

	DB	-53					; ffffffcbH

; 1463 :         __emit 0xb2

	DB	-78					; ffffffb2H

; 1464 :         __emit 0x03

	DB	3

; 1465 :         __emit 0x01

	DB	1

; 1466 :         __emit 0x64

	DB	100					; 00000064H

; 1467 :         __emit 0xa1

	DB	-95					; ffffffa1H

; 1468 :         __emit 0x00

	DB	0

; 1469 :         __emit 0x00

	DB	0

; 1470 :         __emit 0x00

	DB	0

; 1471 :         __emit 0x00

	DB	0

; 1472 :         __emit 0x50

	DB	80					; 00000050H

; 1473 :         __emit 0x64

	DB	100					; 00000064H

; 1474 :         __emit 0x89

	DB	-119					; ffffff89H

; 1475 :         __emit 0x25

	DB	37					; 00000025H

; 1476 :         __emit 0x00

	DB	0

; 1477 :         __emit 0x00

	DB	0

; 1478 :         __emit 0x00

	DB	0

; 1479 :         __emit 0x00

	DB	0

; 1480 :         __emit 0x51

	DB	81					; 00000051H

; 1481 :         __emit 0x56

	DB	86					; 00000056H

; 1482 :         __emit 0x68

	DB	104					; 00000068H

; 1483 :         __emit 0xa0

	DB	-96					; ffffffa0H

; 1484 :         __emit 0x00

	DB	0

; 1485 :         __emit 0x00

	DB	0

; 1486 :         __emit 0x00

	DB	0

; 1487 :         __emit 0xe8

	DB	-24					; ffffffe8H

; 1488 :         __emit 0x1f

	DB	31					; 0000001fH

; 1489 :         __emit 0x15

	DB	21					; 00000015H

; 1490 :         __emit 0x2a

	DB	42					; 0000002aH

; 1491 :         __emit 0x00

	DB	0

; 1492 :         __emit 0x8b

	DB	-117					; ffffff8bH

; 1493 :         __emit 0xf0

	DB	-16					; fffffff0H

; 1494 :         __emit 0x83

	DB	-125					; ffffff83H

; 1495 :         __emit 0xc4

	DB	-60					; ffffffc4H

; 1496 :         __emit 0x04

	DB	4

; 1497 :         __emit 0x89

	DB	-119					; ffffff89H

; 1498 :         __emit 0x74

	DB	116					; 00000074H

; 1499 :         __emit 0x24

	DB	36					; 00000024H

; 1500 :         __emit 0x04

	DB	4

; 1501 :         __emit 0x33

	DB	51					; 00000033H

; 1502 :         __emit 0xc0

	DB	-64					; ffffffc0H

; 1503 :         __emit 0x3b

	DB	59					; 0000003bH

; 1504 :         __emit 0xf0

	DB	-16					; fffffff0H

; 1505 :         __emit 0x89

	DB	-119					; ffffff89H

; 1506 :         __emit 0x44

	DB	68					; 00000044H

; 1507 :         __emit 0x24

	DB	36					; 00000024H

; 1508 :         __emit 0x10

	DB	16					; 00000010H

; 1509 :         __emit 0x74

	DB	116					; 00000074H

; 1510 :         __emit 0x1d

	DB	29					; 0000001dH

; 1511 :         __emit 0x8b

	DB	-117					; ffffff8bH

; 1512 :         __emit 0xce

	DB	-50					; ffffffceH

; 1513 :         __emit 0xe8

	DB	-24					; ffffffe8H

; 1514 :         __emit 0x65

	DB	101					; 00000065H

; 1515 :         __emit 0x4a

	DB	74					; 0000004aH

; 1516 :         __emit 0xa5

	DB	-91					; ffffffa5H

; 1517 :         __emit 0xff

	DB	-1

; 1518 :         __emit 0xc7

	DB	-57					; ffffffc7H

; 1519 :         __emit 0x06

	DB	6

; 1520 :         __emit 0x74

	DB	116					; 00000074H

; 1521 :         __emit 0x10

	DB	16					; 00000010H

; 1522 :         __emit 0x11

	DB	17					; 00000011H

; 1523 :         __emit 0x01

	DB	1

; 1524 :         __emit 0xc7

	DB	-57					; ffffffc7H

; 1525 :         __emit 0x46

	DB	70					; 00000046H

; 1526 :         __emit 0x04

	DB	4

; 1527 :         __emit 0x70

	DB	112					; 00000070H

; 1528 :         __emit 0x10

	DB	16					; 00000010H

; 1529 :         __emit 0x11

	DB	17					; 00000011H

; 1530 :         __emit 0x01

	DB	1

; 1531 :         __emit 0xc7

	DB	-57					; ffffffc7H

; 1532 :         __emit 0x46

	DB	70					; 00000046H

; 1533 :         __emit 0x08

	DB	8

; 1534 :         __emit 0x5c

	DB	92					; 0000005cH

; 1535 :         __emit 0x10

	DB	16					; 00000010H

; 1536 :         __emit 0x11

	DB	17					; 00000011H

; 1537 :         __emit 0x01

	DB	1

; 1538 :         __emit 0x8b

	DB	-117					; ffffff8bH

; 1539 :         __emit 0xc6

	DB	-58					; ffffffc6H

; 1540 :         __emit 0x8b

	DB	-117					; ffffff8bH

; 1541 :         __emit 0x4c

	DB	76					; 0000004cH

; 1542 :         __emit 0x24

	DB	36					; 00000024H

; 1543 :         __emit 0x08

	DB	8

; 1544 :         __emit 0x5e

	DB	94					; 0000005eH

; 1545 :         __emit 0x64

	DB	100					; 00000064H

; 1546 :         __emit 0x89

	DB	-119					; ffffff89H

; 1547 :         __emit 0x0d

	DB	13					; 0000000dH

; 1548 :         __emit 0x00

	DB	0

; 1549 :         __emit 0x00

	DB	0

; 1550 :         __emit 0x00

	DB	0

; 1551 :         __emit 0x00

	DB	0

; 1552 :         __emit 0x83

	DB	-125					; ffffff83H

; 1553 :         __emit 0xc4

	DB	-60					; ffffffc4H

; 1554 :         __emit 0x10

	DB	16					; 00000010H

; 1555 :         __emit 0xc3

	DB	-61					; ffffffc3H
?createTemplate@?$ConcreteModuleClass@V?$ModuleTag@$01$E?RENDEROBJECT_UPDATE_MODULE_KEY@FXParticleSystem@@3QBDB$E?RENDEROBJECT_UPDATE_MODULE_NAME@2@3QBDBVRenderObjectUpdateModule@2@VRenderObjectUpdateModuleTemplate@2@VRenderObjectParticleUpdateModule@2@VRenderObjectParticleUpdateModuleTemplate@2@@FXParticleSystem@@@FXParticleSystem@@QBEPAVRenderObjectUpdateModuleTemplate@2@XZ ENDP ; FXParticleSystem::RENDEROBJECT_UPDATE_MODULE_KEY::ConcreteModuleClass::createTemplate
_TEXT	ENDS
PUBLIC	?getClass@?$ConcreteModuleTemplate@V?$ModuleTag@$01$E?RENDEROBJECT_UPDATE_MODULE_KEY@FXParticleSystem@@3QBDB$E?RENDEROBJECT_UPDATE_MODULE_NAME@2@3QBDBVRenderObjectUpdateModule@2@VRenderObjectUpdateModuleTemplate@2@VRenderObjectParticleUpdateModule@2@VRenderObjectParticleUpdateModuleTemplate@2@@FXParticleSystem@@@FXParticleSystem@@QBEABV?$ConcreteModuleClass@V?$ModuleTag@$01$E?RENDEROBJECT_UPDATE_MODULE_KEY@FXParticleSystem@@3QBDB$E?RENDEROBJECT_UPDATE_MODULE_NAME@2@3QBDBVRenderObjectUpdateModule@2@VRenderObjectUpdateModuleTemplate@2@VRenderObjectParticleUpdateModule@2@VRenderObjectParticleUpdateModuleTemplate@2@@FXParticleSystem@@@2@XZ ; FXParticleSystem::RENDEROBJECT_UPDATE_MODULE_KEY::ConcreteModuleTemplate::getClass
; Function compile flags: /Ogty
;	COMDAT ?getClass@?$ConcreteModuleTemplate@V?$ModuleTag@$01$E?RENDEROBJECT_UPDATE_MODULE_KEY@FXParticleSystem@@3QBDB$E?RENDEROBJECT_UPDATE_MODULE_NAME@2@3QBDBVRenderObjectUpdateModule@2@VRenderObjectUpdateModuleTemplate@2@VRenderObjectParticleUpdateModule@2@VRenderObjectParticleUpdateModuleTemplate@2@@FXParticleSystem@@@FXParticleSystem@@QBEABV?$ConcreteModuleClass@V?$ModuleTag@$01$E?RENDEROBJECT_UPDATE_MODULE_KEY@FXParticleSystem@@3QBDB$E?RENDEROBJECT_UPDATE_MODULE_NAME@2@3QBDBVRenderObjectUpdateModule@2@VRenderObjectUpdateModuleTemplate@2@VRenderObjectParticleUpdateModule@2@VRenderObjectParticleUpdateModuleTemplate@2@@FXParticleSystem@@@2@XZ
_TEXT	SEGMENT
?getClass@?$ConcreteModuleTemplate@V?$ModuleTag@$01$E?RENDEROBJECT_UPDATE_MODULE_KEY@FXParticleSystem@@3QBDB$E?RENDEROBJECT_UPDATE_MODULE_NAME@2@3QBDBVRenderObjectUpdateModule@2@VRenderObjectUpdateModuleTemplate@2@VRenderObjectParticleUpdateModule@2@VRenderObjectParticleUpdateModuleTemplate@2@@FXParticleSystem@@@FXParticleSystem@@QBEABV?$ConcreteModuleClass@V?$ModuleTag@$01$E?RENDEROBJECT_UPDATE_MODULE_KEY@FXParticleSystem@@3QBDB$E?RENDEROBJECT_UPDATE_MODULE_NAME@2@3QBDBVRenderObjectUpdateModule@2@VRenderObjectUpdateModuleTemplate@2@VRenderObjectParticleUpdateModule@2@VRenderObjectParticleUpdateModuleTemplate@2@@FXParticleSystem@@@2@XZ PROC NEAR ; FXParticleSystem::RENDEROBJECT_UPDATE_MODULE_KEY::ConcreteModuleTemplate::getClass, COMDAT
; _this$ = ecx

; 1562 :     __asm {
; 1563 :         __emit 0xe9

	DB	-23					; ffffffe9H

; 1564 :         __emit 0x90

	DB	-112					; ffffff90H

; 1565 :         __emit 0x44

	DB	68					; 00000044H

; 1566 :         __emit 0xa3

	DB	-93					; ffffffa3H

; 1567 :         __emit 0xff

	DB	-1
?getClass@?$ConcreteModuleTemplate@V?$ModuleTag@$01$E?RENDEROBJECT_UPDATE_MODULE_KEY@FXParticleSystem@@3QBDB$E?RENDEROBJECT_UPDATE_MODULE_NAME@2@3QBDBVRenderObjectUpdateModule@2@VRenderObjectUpdateModuleTemplate@2@VRenderObjectParticleUpdateModule@2@VRenderObjectParticleUpdateModuleTemplate@2@@FXParticleSystem@@@FXParticleSystem@@QBEABV?$ConcreteModuleClass@V?$ModuleTag@$01$E?RENDEROBJECT_UPDATE_MODULE_KEY@FXParticleSystem@@3QBDB$E?RENDEROBJECT_UPDATE_MODULE_NAME@2@3QBDBVRenderObjectUpdateModule@2@VRenderObjectUpdateModuleTemplate@2@VRenderObjectParticleUpdateModule@2@VRenderObjectParticleUpdateModuleTemplate@2@@FXParticleSystem@@@2@XZ ENDP ; FXParticleSystem::RENDEROBJECT_UPDATE_MODULE_KEY::ConcreteModuleTemplate::getClass
_TEXT	ENDS
PUBLIC	?getInstance@?$ConcreteModuleClass@V?$ModuleTag@$01$E?RENDEROBJECT_UPDATE_MODULE_KEY@FXParticleSystem@@3QBDB$E?RENDEROBJECT_UPDATE_MODULE_NAME@2@3QBDBVRenderObjectUpdateModule@2@VRenderObjectUpdateModuleTemplate@2@VRenderObjectParticleUpdateModule@2@VRenderObjectParticleUpdateModuleTemplate@2@@FXParticleSystem@@@FXParticleSystem@@SAABV12@XZ ; FXParticleSystem::RENDEROBJECT_UPDATE_MODULE_KEY::ConcreteModuleClass::getInstance
; Function compile flags: /Ogty
;	COMDAT ?getInstance@?$ConcreteModuleClass@V?$ModuleTag@$01$E?RENDEROBJECT_UPDATE_MODULE_KEY@FXParticleSystem@@3QBDB$E?RENDEROBJECT_UPDATE_MODULE_NAME@2@3QBDBVRenderObjectUpdateModule@2@VRenderObjectUpdateModuleTemplate@2@VRenderObjectParticleUpdateModule@2@VRenderObjectParticleUpdateModuleTemplate@2@@FXParticleSystem@@@FXParticleSystem@@SAABV12@XZ
_TEXT	SEGMENT
?getInstance@?$ConcreteModuleClass@V?$ModuleTag@$01$E?RENDEROBJECT_UPDATE_MODULE_KEY@FXParticleSystem@@3QBDB$E?RENDEROBJECT_UPDATE_MODULE_NAME@2@3QBDBVRenderObjectUpdateModule@2@VRenderObjectUpdateModuleTemplate@2@VRenderObjectParticleUpdateModule@2@VRenderObjectParticleUpdateModuleTemplate@2@@FXParticleSystem@@@FXParticleSystem@@SAABV12@XZ PROC NEAR ; FXParticleSystem::RENDEROBJECT_UPDATE_MODULE_KEY::ConcreteModuleClass::getInstance, COMDAT

; 1574 :     __asm {
; 1575 :         __emit 0x8a

	DB	-118					; ffffff8aH

; 1576 :         __emit 0x0d

	DB	13					; 0000000dH

; 1577 :         __emit 0x20

	DB	32					; 00000020H

; 1578 :         __emit 0x6b

	DB	107					; 0000006bH

; 1579 :         __emit 0x2f

	DB	47					; 0000002fH

; 1580 :         __emit 0x01

	DB	1

; 1581 :         __emit 0xb8

	DB	-72					; ffffffb8H

; 1582 :         __emit 0x01

	DB	1

; 1583 :         __emit 0x00

	DB	0

; 1584 :         __emit 0x00

	DB	0

; 1585 :         __emit 0x00

	DB	0

; 1586 :         __emit 0x84

	DB	-124					; ffffff84H

; 1587 :         __emit 0xc8

	DB	-56					; ffffffc8H

; 1588 :         __emit 0x75

	DB	117					; 00000075H

; 1589 :         __emit 0x53

	DB	83					; 00000053H

; 1590 :         __emit 0x8b

	DB	-117					; ffffff8bH

; 1591 :         __emit 0x15

	DB	21					; 00000015H

; 1592 :         __emit 0x20

	DB	32					; 00000020H

; 1593 :         __emit 0x6b

	DB	107					; 0000006bH

; 1594 :         __emit 0x2f

	DB	47					; 0000002fH

; 1595 :         __emit 0x01

	DB	1

; 1596 :         __emit 0x8b

	DB	-117					; ffffff8bH

; 1597 :         __emit 0x0d

	DB	13					; 0000000dH

; 1598 :         __emit 0x20

	DB	32					; 00000020H

; 1599 :         __emit 0x6d

	DB	109					; 0000006dH

; 1600 :         __emit 0x2f

	DB	47					; 0000002fH

; 1601 :         __emit 0x01

	DB	1

; 1602 :         __emit 0x0b

	DB	11					; 0000000bH

; 1603 :         __emit 0xd0

	DB	-48					; ffffffd0H

; 1604 :         __emit 0xa1

	DB	-95					; ffffffa1H

; 1605 :         __emit 0x24

	DB	36					; 00000024H

; 1606 :         __emit 0x6d

	DB	109					; 0000006dH

; 1607 :         __emit 0x2f

	DB	47					; 0000002fH

; 1608 :         __emit 0x01

	DB	1

; 1609 :         __emit 0x8b

	DB	-117					; ffffff8bH

; 1610 :         __emit 0x00

	DB	0

; 1611 :         __emit 0x89

	DB	-119					; ffffff89H

; 1612 :         __emit 0x15

	DB	21					; 00000015H

; 1613 :         __emit 0x20

	DB	32					; 00000020H

; 1614 :         __emit 0x6b

	DB	107					; 0000006bH

; 1615 :         __emit 0x2f

	DB	47					; 0000002fH

; 1616 :         __emit 0x01

	DB	1

; 1617 :         __emit 0x8b

	DB	-117					; ffffff8bH

; 1618 :         __emit 0x11

	DB	17					; 00000011H

; 1619 :         __emit 0xa3

	DB	-93					; ffffffa3H

; 1620 :         __emit 0x14

	DB	20					; 00000014H

; 1621 :         __emit 0x6b

	DB	107					; 0000006bH

; 1622 :         __emit 0x2f

	DB	47					; 0000002fH

; 1623 :         __emit 0x01

	DB	1

; 1624 :         __emit 0xa1

	DB	-95					; ffffffa1H

; 1625 :         __emit 0xf0

	DB	-16					; fffffff0H

; 1626 :         __emit 0x64

	DB	100					; 00000064H

; 1627 :         __emit 0x2f

	DB	47					; 0000002fH

; 1628 :         __emit 0x01

	DB	1

; 1629 :         __emit 0x68

	DB	104					; 00000068H

; 1630 :         __emit 0xe0

	DB	-32					; ffffffe0H

; 1631 :         __emit 0x05

	DB	5

; 1632 :         __emit 0x07

	DB	7

; 1633 :         __emit 0x01

	DB	1

; 1634 :         __emit 0x89

	DB	-119					; ffffff89H

; 1635 :         __emit 0x15

	DB	21					; 00000015H

; 1636 :         __emit 0x10

	DB	16					; 00000010H

; 1637 :         __emit 0x6b

	DB	107					; 0000006bH

; 1638 :         __emit 0x2f

	DB	47					; 0000002fH

; 1639 :         __emit 0x01

	DB	1

; 1640 :         __emit 0xa3

	DB	-93					; ffffffa3H

; 1641 :         __emit 0x18

	DB	24					; 00000018H

; 1642 :         __emit 0x6b

